
D:\cortex\gateway\stm32f10x_bkp.o:     file format elf32-littlearm
D:\cortex\gateway\stm32f10x_bkp.o

Disassembly of section .text.BKP_GetFlagStatus:

00000000 <BKP_GetFlagStatus>:
BKP_GetFlagStatus():
   0:	f248 63a0 	movw	r3, #34464	; 0x86a0
   4:	f2c4 230d 	movt	r3, #16909	; 0x420d
   8:	6818      	ldr	r0, [r3, #0]
   a:	b2c0      	uxtb	r0, r0
   c:	4770      	bx	lr
   e:	46c0      	nop			(mov r8, r8)
Disassembly of section .text.BKP_ClearFlag:

00000000 <BKP_ClearFlag>:
BKP_ClearFlag():
   0:	f646 4200 	movw	r2, #27648	; 0x6c00
   4:	f2c4 0200 	movt	r2, #16384	; 0x4000
   8:	8e93      	ldrh	r3, [r2, #52]
   a:	b29b      	uxth	r3, r3
   c:	f043 0301 	orr.w	r3, r3, #1	; 0x1
  10:	8693      	strh	r3, [r2, #52]
  12:	4770      	bx	lr
Disassembly of section .text.BKP_GetITStatus:

00000000 <BKP_GetITStatus>:
BKP_GetITStatus():
   0:	f248 63a4 	movw	r3, #34468	; 0x86a4
   4:	f2c4 230d 	movt	r3, #16909	; 0x420d
   8:	6818      	ldr	r0, [r3, #0]
   a:	b2c0      	uxtb	r0, r0
   c:	4770      	bx	lr
   e:	46c0      	nop			(mov r8, r8)
Disassembly of section .text.BKP_ClearITPendingBit:

00000000 <BKP_ClearITPendingBit>:
BKP_ClearITPendingBit():
   0:	f646 4200 	movw	r2, #27648	; 0x6c00
   4:	f2c4 0200 	movt	r2, #16384	; 0x4000
   8:	8e93      	ldrh	r3, [r2, #52]
   a:	b29b      	uxth	r3, r3
   c:	f043 0302 	orr.w	r3, r3, #2	; 0x2
  10:	8693      	strh	r3, [r2, #52]
  12:	4770      	bx	lr
Disassembly of section .text.BKP_ReadBackupRegister:

00000000 <BKP_ReadBackupRegister>:
BKP_ReadBackupRegister():
   0:	b510      	push	{r4, lr}
   2:	b082      	sub	sp, #8
   4:	4604      	mov	r4, r0
   6:	f04f 0300 	mov.w	r3, #0	; 0x0
   a:	9301      	str	r3, [sp, #4]
   c:	2808      	cmp	r0, #8
   e:	bf14      	ite	ne
  10:	2300      	movne	r3, #0
  12:	2301      	moveq	r3, #1
  14:	2804      	cmp	r0, #4
  16:	bf08      	it	eq
  18:	f043 0301 	orreq.w	r3, r3, #1	; 0x1
  1c:	2b00      	cmp	r3, #0
  1e:	f040 80ca 	bne.w	1b6 <BKP_ReadBackupRegister+0x1b6>
  22:	2810      	cmp	r0, #16
  24:	bf14      	ite	ne
  26:	2300      	movne	r3, #0
  28:	2301      	moveq	r3, #1
  2a:	280c      	cmp	r0, #12
  2c:	bf08      	it	eq
  2e:	f043 0301 	orreq.w	r3, r3, #1	; 0x1
  32:	2b00      	cmp	r3, #0
  34:	f040 80bf 	bne.w	1b6 <BKP_ReadBackupRegister+0x1b6>
  38:	2818      	cmp	r0, #24
  3a:	bf14      	ite	ne
  3c:	2300      	movne	r3, #0
  3e:	2301      	moveq	r3, #1
  40:	2814      	cmp	r0, #20
  42:	bf08      	it	eq
  44:	f043 0301 	orreq.w	r3, r3, #1	; 0x1
  48:	2b00      	cmp	r3, #0
  4a:	f040 80b4 	bne.w	1b6 <BKP_ReadBackupRegister+0x1b6>
  4e:	2820      	cmp	r0, #32
  50:	bf14      	ite	ne
  52:	2300      	movne	r3, #0
  54:	2301      	moveq	r3, #1
  56:	281c      	cmp	r0, #28
  58:	bf08      	it	eq
  5a:	f043 0301 	orreq.w	r3, r3, #1	; 0x1
  5e:	2b00      	cmp	r3, #0
  60:	f040 80a9 	bne.w	1b6 <BKP_ReadBackupRegister+0x1b6>
  64:	2828      	cmp	r0, #40
  66:	bf14      	ite	ne
  68:	2300      	movne	r3, #0
  6a:	2301      	moveq	r3, #1
  6c:	2824      	cmp	r0, #36
  6e:	bf08      	it	eq
  70:	f043 0301 	orreq.w	r3, r3, #1	; 0x1
  74:	2b00      	cmp	r3, #0
  76:	f040 809e 	bne.w	1b6 <BKP_ReadBackupRegister+0x1b6>
  7a:	2844      	cmp	r0, #68
  7c:	bf14      	ite	ne
  7e:	2300      	movne	r3, #0
  80:	2301      	moveq	r3, #1
  82:	2840      	cmp	r0, #64
  84:	bf08      	it	eq
  86:	f043 0301 	orreq.w	r3, r3, #1	; 0x1
  8a:	2b00      	cmp	r3, #0
  8c:	f040 8093 	bne.w	1b6 <BKP_ReadBackupRegister+0x1b6>
  90:	284c      	cmp	r0, #76
  92:	bf14      	ite	ne
  94:	2300      	movne	r3, #0
  96:	2301      	moveq	r3, #1
  98:	2848      	cmp	r0, #72
  9a:	bf08      	it	eq
  9c:	f043 0301 	orreq.w	r3, r3, #1	; 0x1
  a0:	2b00      	cmp	r3, #0
  a2:	f040 8088 	bne.w	1b6 <BKP_ReadBackupRegister+0x1b6>
  a6:	2854      	cmp	r0, #84
  a8:	bf14      	ite	ne
  aa:	2300      	movne	r3, #0
  ac:	2301      	moveq	r3, #1
  ae:	2850      	cmp	r0, #80
  b0:	bf08      	it	eq
  b2:	f043 0301 	orreq.w	r3, r3, #1	; 0x1
  b6:	2b00      	cmp	r3, #0
  b8:	d17d      	bne.n	1b6 <BKP_ReadBackupRegister+0x1b6>
  ba:	285c      	cmp	r0, #92
  bc:	bf14      	ite	ne
  be:	2300      	movne	r3, #0
  c0:	2301      	moveq	r3, #1
  c2:	2858      	cmp	r0, #88
  c4:	bf08      	it	eq
  c6:	f043 0301 	orreq.w	r3, r3, #1	; 0x1
  ca:	2b00      	cmp	r3, #0
  cc:	d173      	bne.n	1b6 <BKP_ReadBackupRegister+0x1b6>
  ce:	2864      	cmp	r0, #100
  d0:	bf14      	ite	ne
  d2:	2300      	movne	r3, #0
  d4:	2301      	moveq	r3, #1
  d6:	2860      	cmp	r0, #96
  d8:	bf08      	it	eq
  da:	f043 0301 	orreq.w	r3, r3, #1	; 0x1
  de:	2b00      	cmp	r3, #0
  e0:	d169      	bne.n	1b6 <BKP_ReadBackupRegister+0x1b6>
  e2:	286c      	cmp	r0, #108
  e4:	bf14      	ite	ne
  e6:	2300      	movne	r3, #0
  e8:	2301      	moveq	r3, #1
  ea:	2868      	cmp	r0, #104
  ec:	bf08      	it	eq
  ee:	f043 0301 	orreq.w	r3, r3, #1	; 0x1
  f2:	2b00      	cmp	r3, #0
  f4:	d15f      	bne.n	1b6 <BKP_ReadBackupRegister+0x1b6>
  f6:	2874      	cmp	r0, #116
  f8:	bf14      	ite	ne
  fa:	2300      	movne	r3, #0
  fc:	2301      	moveq	r3, #1
  fe:	2870      	cmp	r0, #112
 100:	bf08      	it	eq
 102:	f043 0301 	orreq.w	r3, r3, #1	; 0x1
 106:	2b00      	cmp	r3, #0
 108:	d155      	bne.n	1b6 <BKP_ReadBackupRegister+0x1b6>
 10a:	287c      	cmp	r0, #124
 10c:	bf14      	ite	ne
 10e:	2300      	movne	r3, #0
 110:	2301      	moveq	r3, #1
 112:	2878      	cmp	r0, #120
 114:	bf08      	it	eq
 116:	f043 0301 	orreq.w	r3, r3, #1	; 0x1
 11a:	2b00      	cmp	r3, #0
 11c:	d14b      	bne.n	1b6 <BKP_ReadBackupRegister+0x1b6>
 11e:	2884      	cmp	r0, #132
 120:	bf14      	ite	ne
 122:	2300      	movne	r3, #0
 124:	2301      	moveq	r3, #1
 126:	2880      	cmp	r0, #128
 128:	bf08      	it	eq
 12a:	f043 0301 	orreq.w	r3, r3, #1	; 0x1
 12e:	2b00      	cmp	r3, #0
 130:	d141      	bne.n	1b6 <BKP_ReadBackupRegister+0x1b6>
 132:	288c      	cmp	r0, #140
 134:	bf14      	ite	ne
 136:	2300      	movne	r3, #0
 138:	2301      	moveq	r3, #1
 13a:	2888      	cmp	r0, #136
 13c:	bf08      	it	eq
 13e:	f043 0301 	orreq.w	r3, r3, #1	; 0x1
 142:	2b00      	cmp	r3, #0
 144:	d137      	bne.n	1b6 <BKP_ReadBackupRegister+0x1b6>
 146:	2894      	cmp	r0, #148
 148:	bf14      	ite	ne
 14a:	2300      	movne	r3, #0
 14c:	2301      	moveq	r3, #1
 14e:	2890      	cmp	r0, #144
 150:	bf08      	it	eq
 152:	f043 0301 	orreq.w	r3, r3, #1	; 0x1
 156:	2b00      	cmp	r3, #0
 158:	d12d      	bne.n	1b6 <BKP_ReadBackupRegister+0x1b6>
 15a:	289c      	cmp	r0, #156
 15c:	bf14      	ite	ne
 15e:	2300      	movne	r3, #0
 160:	2301      	moveq	r3, #1
 162:	2898      	cmp	r0, #152
 164:	bf08      	it	eq
 166:	f043 0301 	orreq.w	r3, r3, #1	; 0x1
 16a:	bb23      	cbnz	r3, 1b6 <BKP_ReadBackupRegister+0x1b6>
 16c:	28a4      	cmp	r0, #164
 16e:	bf14      	ite	ne
 170:	2300      	movne	r3, #0
 172:	2301      	moveq	r3, #1
 174:	28a0      	cmp	r0, #160
 176:	bf08      	it	eq
 178:	f043 0301 	orreq.w	r3, r3, #1	; 0x1
 17c:	b9db      	cbnz	r3, 1b6 <BKP_ReadBackupRegister+0x1b6>
 17e:	28ac      	cmp	r0, #172
 180:	bf14      	ite	ne
 182:	2300      	movne	r3, #0
 184:	2301      	moveq	r3, #1
 186:	28a8      	cmp	r0, #168
 188:	bf08      	it	eq
 18a:	f043 0301 	orreq.w	r3, r3, #1	; 0x1
 18e:	b993      	cbnz	r3, 1b6 <BKP_ReadBackupRegister+0x1b6>
 190:	28b4      	cmp	r0, #180
 192:	bf14      	ite	ne
 194:	2300      	movne	r3, #0
 196:	2301      	moveq	r3, #1
 198:	28b0      	cmp	r0, #176
 19a:	bf08      	it	eq
 19c:	f043 0301 	orreq.w	r3, r3, #1	; 0x1
 1a0:	b94b      	cbnz	r3, 1b6 <BKP_ReadBackupRegister+0x1b6>
 1a2:	28bc      	cmp	r0, #188
 1a4:	bf14      	ite	ne
 1a6:	2300      	movne	r3, #0
 1a8:	2301      	moveq	r3, #1
 1aa:	28b8      	cmp	r0, #184
 1ac:	bf14      	ite	ne
 1ae:	4618      	movne	r0, r3
 1b0:	f043 0001 	orreq.w	r0, r3, #1	; 0x1
 1b4:	e001      	b.n	1ba <BKP_ReadBackupRegister+0x1ba>
 1b6:	f04f 0001 	mov.w	r0, #1	; 0x1
 1ba:	f7ff fffe 	bl	0 <assert_param>
 1be:	f646 4300 	movw	r3, #27648	; 0x6c00
 1c2:	f2c4 0300 	movt	r3, #16384	; 0x4000
 1c6:	9301      	str	r3, [sp, #4]
 1c8:	9b01      	ldr	r3, [sp, #4]
 1ca:	4423      	add	r3, r4
 1cc:	9301      	str	r3, [sp, #4]
 1ce:	9b01      	ldr	r3, [sp, #4]
 1d0:	8818      	ldrh	r0, [r3, #0]
 1d2:	b280      	uxth	r0, r0
 1d4:	b002      	add	sp, #8
 1d6:	bd10      	pop	{r4, pc}
Disassembly of section .text.BKP_WriteBackupRegister:

00000000 <BKP_WriteBackupRegister>:
BKP_WriteBackupRegister():
   0:	b530      	push	{r4, r5, lr}
   2:	b083      	sub	sp, #12
   4:	4604      	mov	r4, r0
   6:	460d      	mov	r5, r1
   8:	f04f 0300 	mov.w	r3, #0	; 0x0
   c:	9301      	str	r3, [sp, #4]
   e:	2808      	cmp	r0, #8
  10:	bf14      	ite	ne
  12:	2300      	movne	r3, #0
  14:	2301      	moveq	r3, #1
  16:	2804      	cmp	r0, #4
  18:	bf08      	it	eq
  1a:	f043 0301 	orreq.w	r3, r3, #1	; 0x1
  1e:	2b00      	cmp	r3, #0
  20:	f040 80ca 	bne.w	1b8 <BKP_WriteBackupRegister+0x1b8>
  24:	2810      	cmp	r0, #16
  26:	bf14      	ite	ne
  28:	2300      	movne	r3, #0
  2a:	2301      	moveq	r3, #1
  2c:	280c      	cmp	r0, #12
  2e:	bf08      	it	eq
  30:	f043 0301 	orreq.w	r3, r3, #1	; 0x1
  34:	2b00      	cmp	r3, #0
  36:	f040 80bf 	bne.w	1b8 <BKP_WriteBackupRegister+0x1b8>
  3a:	2818      	cmp	r0, #24
  3c:	bf14      	ite	ne
  3e:	2300      	movne	r3, #0
  40:	2301      	moveq	r3, #1
  42:	2814      	cmp	r0, #20
  44:	bf08      	it	eq
  46:	f043 0301 	orreq.w	r3, r3, #1	; 0x1
  4a:	2b00      	cmp	r3, #0
  4c:	f040 80b4 	bne.w	1b8 <BKP_WriteBackupRegister+0x1b8>
  50:	2820      	cmp	r0, #32
  52:	bf14      	ite	ne
  54:	2300      	movne	r3, #0
  56:	2301      	moveq	r3, #1
  58:	281c      	cmp	r0, #28
  5a:	bf08      	it	eq
  5c:	f043 0301 	orreq.w	r3, r3, #1	; 0x1
  60:	2b00      	cmp	r3, #0
  62:	f040 80a9 	bne.w	1b8 <BKP_WriteBackupRegister+0x1b8>
  66:	2828      	cmp	r0, #40
  68:	bf14      	ite	ne
  6a:	2300      	movne	r3, #0
  6c:	2301      	moveq	r3, #1
  6e:	2824      	cmp	r0, #36
  70:	bf08      	it	eq
  72:	f043 0301 	orreq.w	r3, r3, #1	; 0x1
  76:	2b00      	cmp	r3, #0
  78:	f040 809e 	bne.w	1b8 <BKP_WriteBackupRegister+0x1b8>
  7c:	2844      	cmp	r0, #68
  7e:	bf14      	ite	ne
  80:	2300      	movne	r3, #0
  82:	2301      	moveq	r3, #1
  84:	2840      	cmp	r0, #64
  86:	bf08      	it	eq
  88:	f043 0301 	orreq.w	r3, r3, #1	; 0x1
  8c:	2b00      	cmp	r3, #0
  8e:	f040 8093 	bne.w	1b8 <BKP_WriteBackupRegister+0x1b8>
  92:	284c      	cmp	r0, #76
  94:	bf14      	ite	ne
  96:	2300      	movne	r3, #0
  98:	2301      	moveq	r3, #1
  9a:	2848      	cmp	r0, #72
  9c:	bf08      	it	eq
  9e:	f043 0301 	orreq.w	r3, r3, #1	; 0x1
  a2:	2b00      	cmp	r3, #0
  a4:	f040 8088 	bne.w	1b8 <BKP_WriteBackupRegister+0x1b8>
  a8:	2854      	cmp	r0, #84
  aa:	bf14      	ite	ne
  ac:	2300      	movne	r3, #0
  ae:	2301      	moveq	r3, #1
  b0:	2850      	cmp	r0, #80
  b2:	bf08      	it	eq
  b4:	f043 0301 	orreq.w	r3, r3, #1	; 0x1
  b8:	2b00      	cmp	r3, #0
  ba:	d17d      	bne.n	1b8 <BKP_WriteBackupRegister+0x1b8>
  bc:	285c      	cmp	r0, #92
  be:	bf14      	ite	ne
  c0:	2300      	movne	r3, #0
  c2:	2301      	moveq	r3, #1
  c4:	2858      	cmp	r0, #88
  c6:	bf08      	it	eq
  c8:	f043 0301 	orreq.w	r3, r3, #1	; 0x1
  cc:	2b00      	cmp	r3, #0
  ce:	d173      	bne.n	1b8 <BKP_WriteBackupRegister+0x1b8>
  d0:	2864      	cmp	r0, #100
  d2:	bf14      	ite	ne
  d4:	2300      	movne	r3, #0
  d6:	2301      	moveq	r3, #1
  d8:	2860      	cmp	r0, #96
  da:	bf08      	it	eq
  dc:	f043 0301 	orreq.w	r3, r3, #1	; 0x1
  e0:	2b00      	cmp	r3, #0
  e2:	d169      	bne.n	1b8 <BKP_WriteBackupRegister+0x1b8>
  e4:	286c      	cmp	r0, #108
  e6:	bf14      	ite	ne
  e8:	2300      	movne	r3, #0
  ea:	2301      	moveq	r3, #1
  ec:	2868      	cmp	r0, #104
  ee:	bf08      	it	eq
  f0:	f043 0301 	orreq.w	r3, r3, #1	; 0x1
  f4:	2b00      	cmp	r3, #0
  f6:	d15f      	bne.n	1b8 <BKP_WriteBackupRegister+0x1b8>
  f8:	2874      	cmp	r0, #116
  fa:	bf14      	ite	ne
  fc:	2300      	movne	r3, #0
  fe:	2301      	moveq	r3, #1
 100:	2870      	cmp	r0, #112
 102:	bf08      	it	eq
 104:	f043 0301 	orreq.w	r3, r3, #1	; 0x1
 108:	2b00      	cmp	r3, #0
 10a:	d155      	bne.n	1b8 <BKP_WriteBackupRegister+0x1b8>
 10c:	287c      	cmp	r0, #124
 10e:	bf14      	ite	ne
 110:	2300      	movne	r3, #0
 112:	2301      	moveq	r3, #1
 114:	2878      	cmp	r0, #120
 116:	bf08      	it	eq
 118:	f043 0301 	orreq.w	r3, r3, #1	; 0x1
 11c:	2b00      	cmp	r3, #0
 11e:	d14b      	bne.n	1b8 <BKP_WriteBackupRegister+0x1b8>
 120:	2884      	cmp	r0, #132
 122:	bf14      	ite	ne
 124:	2300      	movne	r3, #0
 126:	2301      	moveq	r3, #1
 128:	2880      	cmp	r0, #128
 12a:	bf08      	it	eq
 12c:	f043 0301 	orreq.w	r3, r3, #1	; 0x1
 130:	2b00      	cmp	r3, #0
 132:	d141      	bne.n	1b8 <BKP_WriteBackupRegister+0x1b8>
 134:	288c      	cmp	r0, #140
 136:	bf14      	ite	ne
 138:	2300      	movne	r3, #0
 13a:	2301      	moveq	r3, #1
 13c:	2888      	cmp	r0, #136
 13e:	bf08      	it	eq
 140:	f043 0301 	orreq.w	r3, r3, #1	; 0x1
 144:	2b00      	cmp	r3, #0
 146:	d137      	bne.n	1b8 <BKP_WriteBackupRegister+0x1b8>
 148:	2894      	cmp	r0, #148
 14a:	bf14      	ite	ne
 14c:	2300      	movne	r3, #0
 14e:	2301      	moveq	r3, #1
 150:	2890      	cmp	r0, #144
 152:	bf08      	it	eq
 154:	f043 0301 	orreq.w	r3, r3, #1	; 0x1
 158:	2b00      	cmp	r3, #0
 15a:	d12d      	bne.n	1b8 <BKP_WriteBackupRegister+0x1b8>
 15c:	289c      	cmp	r0, #156
 15e:	bf14      	ite	ne
 160:	2300      	movne	r3, #0
 162:	2301      	moveq	r3, #1
 164:	2898      	cmp	r0, #152
 166:	bf08      	it	eq
 168:	f043 0301 	orreq.w	r3, r3, #1	; 0x1
 16c:	bb23      	cbnz	r3, 1b8 <BKP_WriteBackupRegister+0x1b8>
 16e:	28a4      	cmp	r0, #164
 170:	bf14      	ite	ne
 172:	2300      	movne	r3, #0
 174:	2301      	moveq	r3, #1
 176:	28a0      	cmp	r0, #160
 178:	bf08      	it	eq
 17a:	f043 0301 	orreq.w	r3, r3, #1	; 0x1
 17e:	b9db      	cbnz	r3, 1b8 <BKP_WriteBackupRegister+0x1b8>
 180:	28ac      	cmp	r0, #172
 182:	bf14      	ite	ne
 184:	2300      	movne	r3, #0
 186:	2301      	moveq	r3, #1
 188:	28a8      	cmp	r0, #168
 18a:	bf08      	it	eq
 18c:	f043 0301 	orreq.w	r3, r3, #1	; 0x1
 190:	b993      	cbnz	r3, 1b8 <BKP_WriteBackupRegister+0x1b8>
 192:	28b4      	cmp	r0, #180
 194:	bf14      	ite	ne
 196:	2300      	movne	r3, #0
 198:	2301      	moveq	r3, #1
 19a:	28b0      	cmp	r0, #176
 19c:	bf08      	it	eq
 19e:	f043 0301 	orreq.w	r3, r3, #1	; 0x1
 1a2:	b94b      	cbnz	r3, 1b8 <BKP_WriteBackupRegister+0x1b8>
 1a4:	28bc      	cmp	r0, #188
 1a6:	bf14      	ite	ne
 1a8:	2300      	movne	r3, #0
 1aa:	2301      	moveq	r3, #1
 1ac:	28b8      	cmp	r0, #184
 1ae:	bf14      	ite	ne
 1b0:	4618      	movne	r0, r3
 1b2:	f043 0001 	orreq.w	r0, r3, #1	; 0x1
 1b6:	e001      	b.n	1bc <BKP_WriteBackupRegister+0x1bc>
 1b8:	f04f 0001 	mov.w	r0, #1	; 0x1
 1bc:	f7ff fffe 	bl	0 <assert_param>
 1c0:	f646 4300 	movw	r3, #27648	; 0x6c00
 1c4:	f2c4 0300 	movt	r3, #16384	; 0x4000
 1c8:	9301      	str	r3, [sp, #4]
 1ca:	9b01      	ldr	r3, [sp, #4]
 1cc:	4423      	add	r3, r4
 1ce:	9301      	str	r3, [sp, #4]
 1d0:	9b01      	ldr	r3, [sp, #4]
 1d2:	601d      	str	r5, [r3, #0]
 1d4:	b003      	add	sp, #12
 1d6:	bd30      	pop	{r4, r5, pc}
Disassembly of section .text.BKP_SetRTCCalibrationValue:

00000000 <BKP_SetRTCCalibrationValue>:
BKP_SetRTCCalibrationValue():
   0:	b510      	push	{r4, lr}
   2:	4604      	mov	r4, r0
   4:	f080 0080 	eor.w	r0, r0, #128	; 0x80
   8:	ea4f 10d0 	mov.w	r0, r0, lsr #7
   c:	f7ff fffe 	bl	0 <assert_param>
  10:	f646 4200 	movw	r2, #27648	; 0x6c00
  14:	f2c4 0200 	movt	r2, #16384	; 0x4000
  18:	8d93      	ldrh	r3, [r2, #44]
  1a:	f023 037f 	bic.w	r3, r3, #127	; 0x7f
  1e:	ea4f 4303 	mov.w	r3, r3, lsl #16
  22:	ea4f 4313 	mov.w	r3, r3, lsr #16
  26:	ea43 0304 	orr.w	r3, r3, r4
  2a:	8593      	strh	r3, [r2, #44]
  2c:	bd10      	pop	{r4, pc}
  2e:	46c0      	nop			(mov r8, r8)
Disassembly of section .text.BKP_RTCOutputConfig:

00000000 <BKP_RTCOutputConfig>:
BKP_RTCOutputConfig():
   0:	b510      	push	{r4, lr}
   2:	4604      	mov	r4, r0
   4:	2880      	cmp	r0, #128
   6:	bf14      	ite	ne
   8:	2300      	movne	r3, #0
   a:	2301      	moveq	r3, #1
   c:	2800      	cmp	r0, #0
   e:	bf08      	it	eq
  10:	f043 0301 	orreq.w	r3, r3, #1	; 0x1
  14:	b113      	cbz	r3, 1c <BKP_RTCOutputConfig+0x1c>
  16:	f04f 0001 	mov.w	r0, #1	; 0x1
  1a:	e00a      	b.n	32 <BKP_RTCOutputConfig+0x32>
  1c:	f5b0 7f40 	cmp.w	r0, #768	; 0x300
  20:	bf14      	ite	ne
  22:	2300      	movne	r3, #0
  24:	2301      	moveq	r3, #1
  26:	f5b0 7f80 	cmp.w	r0, #256	; 0x100
  2a:	bf14      	ite	ne
  2c:	4618      	movne	r0, r3
  2e:	f043 0001 	orreq.w	r0, r3, #1	; 0x1
  32:	f7ff fffe 	bl	0 <assert_param>
  36:	f646 4200 	movw	r2, #27648	; 0x6c00
  3a:	f2c4 0200 	movt	r2, #16384	; 0x4000
  3e:	8d93      	ldrh	r3, [r2, #44]
  40:	f423 7360 	bic.w	r3, r3, #896	; 0x380
  44:	ea4f 4303 	mov.w	r3, r3, lsl #16
  48:	ea4f 4313 	mov.w	r3, r3, lsr #16
  4c:	ea44 0303 	orr.w	r3, r4, r3
  50:	8593      	strh	r3, [r2, #44]
  52:	bd10      	pop	{r4, pc}
Disassembly of section .text.BKP_ITConfig:

00000000 <BKP_ITConfig>:
BKP_ITConfig():
   0:	b510      	push	{r4, lr}
   2:	4604      	mov	r4, r0
   4:	2801      	cmp	r0, #1
   6:	bf8c      	ite	hi
   8:	2000      	movhi	r0, #0
   a:	2001      	movls	r0, #1
   c:	f7ff fffe 	bl	0 <assert_param>
  10:	f248 6388 	movw	r3, #34440	; 0x8688
  14:	f2c4 230d 	movt	r3, #16909	; 0x420d
  18:	601c      	str	r4, [r3, #0]
  1a:	bd10      	pop	{r4, pc}
Disassembly of section .text.BKP_TamperPinCmd:

00000000 <BKP_TamperPinCmd>:
BKP_TamperPinCmd():
   0:	b510      	push	{r4, lr}
   2:	4604      	mov	r4, r0
   4:	2801      	cmp	r0, #1
   6:	bf8c      	ite	hi
   8:	2000      	movhi	r0, #0
   a:	2001      	movls	r0, #1
   c:	f7ff fffe 	bl	0 <assert_param>
  10:	f248 6300 	movw	r3, #34304	; 0x8600
  14:	f2c4 230d 	movt	r3, #16909	; 0x420d
  18:	601c      	str	r4, [r3, #0]
  1a:	bd10      	pop	{r4, pc}
Disassembly of section .text.BKP_TamperPinLevelConfig:

00000000 <BKP_TamperPinLevelConfig>:
BKP_TamperPinLevelConfig():
   0:	b510      	push	{r4, lr}
   2:	4604      	mov	r4, r0
   4:	2801      	cmp	r0, #1
   6:	bf8c      	ite	hi
   8:	2000      	movhi	r0, #0
   a:	2001      	movls	r0, #1
   c:	f7ff fffe 	bl	0 <assert_param>
  10:	f248 6304 	movw	r3, #34308	; 0x8604
  14:	f2c4 230d 	movt	r3, #16909	; 0x420d
  18:	601c      	str	r4, [r3, #0]
  1a:	bd10      	pop	{r4, pc}
Disassembly of section .text.BKP_DeInit:

00000000 <BKP_DeInit>:
BKP_DeInit():
   0:	b510      	push	{r4, lr}
   2:	f04f 0001 	mov.w	r0, #1	; 0x1
   6:	f7ff fffe 	bl	0 <RCC_BackupResetCmd>
   a:	f04f 0000 	mov.w	r0, #0	; 0x0
   e:	f7ff fffe 	bl	0 <RCC_BackupResetCmd>
  12:	bd10      	pop	{r4, pc}
