
D:\cortex\gateway\stm32f10x_gpio.o:     file format elf32-littlearm
D:\cortex\gateway\stm32f10x_gpio.o

Disassembly of section .text.GPIO_StructInit:

00000000 <GPIO_StructInit>:
GPIO_StructInit():
   0:	f04f 33ff 	mov.w	r3, #4294967295	; 0xffffffff
   4:	8003      	strh	r3, [r0, #0]
   6:	f04f 0302 	mov.w	r3, #2	; 0x2
   a:	7083      	strb	r3, [r0, #2]
   c:	f103 0302 	add.w	r3, r3, #2	; 0x2
  10:	70c3      	strb	r3, [r0, #3]
  12:	4770      	bx	lr
Disassembly of section .text.GPIO_ETH_MediaInterfaceConfig:

00000000 <GPIO_ETH_MediaInterfaceConfig>:
GPIO_ETH_MediaInterfaceConfig():
   0:	b510      	push	{r4, lr}
   2:	4604      	mov	r4, r0
   4:	2801      	cmp	r0, #1
   6:	bf8c      	ite	hi
   8:	2000      	movhi	r0, #0
   a:	2001      	movls	r0, #1
   c:	f7ff fffe 	bl	0 <assert_param>
  10:	f240 03dc 	movw	r3, #220	; 0xdc
  14:	f2c4 2320 	movt	r3, #16928	; 0x4220
  18:	601c      	str	r4, [r3, #0]
  1a:	bd10      	pop	{r4, pc}
Disassembly of section .text.GPIO_EXTILineConfig:

00000000 <GPIO_EXTILineConfig>:
GPIO_EXTILineConfig():
   0:	b570      	push	{r4, r5, r6, lr}
   2:	4605      	mov	r5, r0
   4:	460c      	mov	r4, r1
   6:	2806      	cmp	r0, #6
   8:	bf8c      	ite	hi
   a:	2000      	movhi	r0, #0
   c:	2001      	movls	r0, #1
   e:	f7ff fffe 	bl	0 <assert_param>
  12:	2c0f      	cmp	r4, #15
  14:	bf8c      	ite	hi
  16:	2000      	movhi	r0, #0
  18:	2001      	movls	r0, #1
  1a:	f7ff fffe 	bl	0 <assert_param>
  1e:	f004 0103 	and.w	r1, r4, #3	; 0x3
  22:	ea4f 0181 	mov.w	r1, r1, lsl #2
  26:	ea4f 0494 	mov.w	r4, r4, lsr #2
  2a:	f240 0200 	movw	r2, #0	; 0x0
  2e:	f2c4 0201 	movt	r2, #16385	; 0x4001
  32:	f104 0402 	add.w	r4, r4, #2	; 0x2
  36:	f852 0024 	ldr.w	r0, [r2, r4, lsl #2]
  3a:	f04f 030f 	mov.w	r3, #15	; 0xf
  3e:	fa03 f301 	lsl.w	r3, r3, r1
  42:	ea6f 0303 	mvn.w	r3, r3
  46:	ea03 0300 	and.w	r3, r3, r0
  4a:	f842 3024 	str.w	r3, [r2, r4, lsl #2]
  4e:	f852 3024 	ldr.w	r3, [r2, r4, lsl #2]
  52:	fa05 f501 	lsl.w	r5, r5, r1
  56:	ea45 0503 	orr.w	r5, r5, r3
  5a:	f842 5024 	str.w	r5, [r2, r4, lsl #2]
  5e:	bd70      	pop	{r4, r5, r6, pc}
Disassembly of section .text.GPIO_PinRemapConfig:

00000000 <GPIO_PinRemapConfig>:
GPIO_PinRemapConfig():
   0:	b570      	push	{r4, r5, r6, lr}
   2:	4604      	mov	r4, r0
   4:	460d      	mov	r5, r1
   6:	f100 32ff 	add.w	r2, r0, #4294967295	; 0xffffffff
   a:	2804      	cmp	r0, #4
   c:	bf14      	ite	ne
   e:	2300      	movne	r3, #0
  10:	2301      	moveq	r3, #1
  12:	2a01      	cmp	r2, #1
  14:	bf98      	it	ls
  16:	f043 0301 	orrls.w	r3, r3, #1	; 0x1
  1a:	2b00      	cmp	r3, #0
  1c:	f040 80df 	bne.w	1de <GPIO_PinRemapConfig+0x1de>
  20:	f240 0310 	movw	r3, #16	; 0x10
  24:	f2c0 0314 	movt	r3, #20	; 0x14
  28:	4298      	cmp	r0, r3
  2a:	bf14      	ite	ne
  2c:	2300      	movne	r3, #0
  2e:	2301      	moveq	r3, #1
  30:	2808      	cmp	r0, #8
  32:	bf08      	it	eq
  34:	f043 0301 	orreq.w	r3, r3, #1	; 0x1
  38:	2b00      	cmp	r3, #0
  3a:	f040 80d0 	bne.w	1de <GPIO_PinRemapConfig+0x1de>
  3e:	f240 0230 	movw	r2, #48	; 0x30
  42:	f2c0 0214 	movt	r2, #20	; 0x14
  46:	f240 0340 	movw	r3, #64	; 0x40
  4a:	f2c0 0316 	movt	r3, #22	; 0x16
  4e:	4298      	cmp	r0, r3
  50:	bf14      	ite	ne
  52:	2300      	movne	r3, #0
  54:	2301      	moveq	r3, #1
  56:	4290      	cmp	r0, r2
  58:	bf08      	it	eq
  5a:	f043 0301 	orreq.w	r3, r3, #1	; 0x1
  5e:	2b00      	cmp	r3, #0
  60:	f040 80bd 	bne.w	1de <GPIO_PinRemapConfig+0x1de>
  64:	f240 02c0 	movw	r2, #192	; 0xc0
  68:	f2c0 0216 	movt	r2, #22	; 0x16
  6c:	f240 1300 	movw	r3, #256	; 0x100
  70:	f2c0 0318 	movt	r3, #24	; 0x18
  74:	4298      	cmp	r0, r3
  76:	bf14      	ite	ne
  78:	2300      	movne	r3, #0
  7a:	2301      	moveq	r3, #1
  7c:	4290      	cmp	r0, r2
  7e:	bf08      	it	eq
  80:	f043 0301 	orreq.w	r3, r3, #1	; 0x1
  84:	2b00      	cmp	r3, #0
  86:	f040 80aa 	bne.w	1de <GPIO_PinRemapConfig+0x1de>
  8a:	f240 2200 	movw	r2, #512	; 0x200
  8e:	f2c0 0218 	movt	r2, #24	; 0x18
  92:	f240 3300 	movw	r3, #768	; 0x300
  96:	f2c0 0318 	movt	r3, #24	; 0x18
  9a:	4298      	cmp	r0, r3
  9c:	bf14      	ite	ne
  9e:	2300      	movne	r3, #0
  a0:	2301      	moveq	r3, #1
  a2:	4290      	cmp	r0, r2
  a4:	bf08      	it	eq
  a6:	f043 0301 	orreq.w	r3, r3, #1	; 0x1
  aa:	2b00      	cmp	r3, #0
  ac:	f040 8097 	bne.w	1de <GPIO_PinRemapConfig+0x1de>
  b0:	f640 0200 	movw	r2, #2048	; 0x800
  b4:	f2c0 021a 	movt	r2, #26	; 0x1a
  b8:	f640 4300 	movw	r3, #3072	; 0xc00
  bc:	f2c0 031a 	movt	r3, #26	; 0x1a
  c0:	4298      	cmp	r0, r3
  c2:	bf14      	ite	ne
  c4:	2300      	movne	r3, #0
  c6:	2301      	moveq	r3, #1
  c8:	4290      	cmp	r0, r2
  ca:	bf08      	it	eq
  cc:	f043 0301 	orreq.w	r3, r3, #1	; 0x1
  d0:	2b00      	cmp	r3, #0
  d2:	f040 8084 	bne.w	1de <GPIO_PinRemapConfig+0x1de>
  d6:	f5b0 1fea 	cmp.w	r0, #1916928	; 0x1d4000
  da:	bf14      	ite	ne
  dc:	2300      	movne	r3, #0
  de:	2301      	moveq	r3, #1
  e0:	f5b0 5f80 	cmp.w	r0, #4096	; 0x1000
  e4:	bf08      	it	eq
  e6:	f043 0301 	orreq.w	r3, r3, #1	; 0x1
  ea:	2b00      	cmp	r3, #0
  ec:	d177      	bne.n	1de <GPIO_PinRemapConfig+0x1de>
  ee:	f5b0 4f00 	cmp.w	r0, #32768	; 0x8000
  f2:	bf14      	ite	ne
  f4:	2300      	movne	r3, #0
  f6:	2301      	moveq	r3, #1
  f8:	f5b0 1feb 	cmp.w	r0, #1925120	; 0x1d6000
  fc:	bf08      	it	eq
  fe:	f043 0301 	orreq.w	r3, r3, #1	; 0x1
 102:	2b00      	cmp	r3, #0
 104:	d16b      	bne.n	1de <GPIO_PinRemapConfig+0x1de>
 106:	f240 0201 	movw	r2, #1	; 0x1
 10a:	f2c0 0220 	movt	r2, #32	; 0x20
 10e:	f240 0302 	movw	r3, #2	; 0x2
 112:	f2c0 0320 	movt	r3, #32	; 0x20
 116:	4298      	cmp	r0, r3
 118:	bf14      	ite	ne
 11a:	2300      	movne	r3, #0
 11c:	2301      	moveq	r3, #1
 11e:	4290      	cmp	r0, r2
 120:	bf08      	it	eq
 122:	f043 0301 	orreq.w	r3, r3, #1	; 0x1
 126:	2b00      	cmp	r3, #0
 128:	d159      	bne.n	1de <GPIO_PinRemapConfig+0x1de>
 12a:	f240 0204 	movw	r2, #4	; 0x4
 12e:	f2c0 0220 	movt	r2, #32	; 0x20
 132:	f240 0308 	movw	r3, #8	; 0x8
 136:	f2c0 0320 	movt	r3, #32	; 0x20
 13a:	4298      	cmp	r0, r3
 13c:	bf14      	ite	ne
 13e:	2300      	movne	r3, #0
 140:	2301      	moveq	r3, #1
 142:	4290      	cmp	r0, r2
 144:	bf08      	it	eq
 146:	f043 0301 	orreq.w	r3, r3, #1	; 0x1
 14a:	2b00      	cmp	r3, #0
 14c:	d147      	bne.n	1de <GPIO_PinRemapConfig+0x1de>
 14e:	f240 0210 	movw	r2, #16	; 0x10
 152:	f2c0 0220 	movt	r2, #32	; 0x20
 156:	f1b0 1f20 	cmp.w	r0, #2097184	; 0x200020
 15a:	bf14      	ite	ne
 15c:	2300      	movne	r3, #0
 15e:	2301      	moveq	r3, #1
 160:	4290      	cmp	r0, r2
 162:	bf08      	it	eq
 164:	f043 0301 	orreq.w	r3, r3, #1	; 0x1
 168:	2b00      	cmp	r3, #0
 16a:	d138      	bne.n	1de <GPIO_PinRemapConfig+0x1de>
 16c:	f240 0240 	movw	r2, #64	; 0x40
 170:	f2c0 0220 	movt	r2, #32	; 0x20
 174:	f240 1300 	movw	r3, #256	; 0x100
 178:	f2c0 0330 	movt	r3, #48	; 0x30
 17c:	4298      	cmp	r0, r3
 17e:	bf14      	ite	ne
 180:	2300      	movne	r3, #0
 182:	2301      	moveq	r3, #1
 184:	4290      	cmp	r0, r2
 186:	bf08      	it	eq
 188:	f043 0301 	orreq.w	r3, r3, #1	; 0x1
 18c:	bb3b      	cbnz	r3, 1de <GPIO_PinRemapConfig+0x1de>
 18e:	f240 2200 	movw	r2, #512	; 0x200
 192:	f2c0 0230 	movt	r2, #48	; 0x30
 196:	f240 4300 	movw	r3, #1024	; 0x400
 19a:	f2c0 0330 	movt	r3, #48	; 0x30
 19e:	4298      	cmp	r0, r3
 1a0:	bf14      	ite	ne
 1a2:	2300      	movne	r3, #0
 1a4:	2301      	moveq	r3, #1
 1a6:	4290      	cmp	r0, r2
 1a8:	bf08      	it	eq
 1aa:	f043 0301 	orreq.w	r3, r3, #1	; 0x1
 1ae:	b9b3      	cbnz	r3, 1de <GPIO_PinRemapConfig+0x1de>
 1b0:	f241 0200 	movw	r2, #4096	; 0x1000
 1b4:	f2c0 0220 	movt	r2, #32	; 0x20
 1b8:	f242 0300 	movw	r3, #8192	; 0x2000
 1bc:	f2c0 0320 	movt	r3, #32	; 0x20
 1c0:	4298      	cmp	r0, r3
 1c2:	bf14      	ite	ne
 1c4:	2300      	movne	r3, #0
 1c6:	2301      	moveq	r3, #1
 1c8:	4290      	cmp	r0, r2
 1ca:	bf08      	it	eq
 1cc:	f043 0301 	orreq.w	r3, r3, #1	; 0x1
 1d0:	b92b      	cbnz	r3, 1de <GPIO_PinRemapConfig+0x1de>
 1d2:	f5b0 1f01 	cmp.w	r0, #2113536	; 0x204000
 1d6:	bf18      	it	ne
 1d8:	2000      	movne	r0, #0
 1da:	d102      	bne.n	1e2 <GPIO_PinRemapConfig+0x1e2>
 1dc:	e048      	b.n	270 <GPIO_PinRemapConfig+0x270>
 1de:	f04f 0001 	mov.w	r0, #1	; 0x1
 1e2:	f7ff fffe 	bl	0 <assert_param>
 1e6:	2d01      	cmp	r5, #1
 1e8:	bf8c      	ite	hi
 1ea:	2000      	movhi	r0, #0
 1ec:	2001      	movls	r0, #1
 1ee:	f7ff fffe 	bl	0 <assert_param>
 1f2:	f240 0300 	movw	r3, #0	; 0x0
 1f6:	f2c4 0301 	movt	r3, #16385	; 0x4001
 1fa:	6859      	ldr	r1, [r3, #4]
 1fc:	b2a0      	uxth	r0, r4
 1fe:	f404 1340 	and.w	r3, r4, #3145728	; 0x300000
 202:	f5b3 1f40 	cmp.w	r3, #3145728	; 0x300000
 206:	d10a      	bne.n	21e <GPIO_PinRemapConfig+0x21e>
 208:	f021 6170 	bic.w	r1, r1, #251658240	; 0xf000000
 20c:	f240 0200 	movw	r2, #0	; 0x0
 210:	f2c4 0201 	movt	r2, #16385	; 0x4001
 214:	6853      	ldr	r3, [r2, #4]
 216:	f023 6370 	bic.w	r3, r3, #251658240	; 0xf000000
 21a:	6053      	str	r3, [r2, #4]
 21c:	e019      	b.n	252 <GPIO_PinRemapConfig+0x252>
 21e:	f414 1f80 	tst.w	r4, #1048576	; 0x100000
 222:	bf1f      	itttt	ne
 224:	f404 2270 	andne.w	r2, r4, #983040	; 0xf0000
 228:	0c12      	lsrne	r2, r2, #16
 22a:	2303      	movne	r3, #3
 22c:	4093      	lslne	r3, r2
 22e:	bf1e      	ittt	ne
 230:	43db      	mvnne	r3, r3
 232:	400b      	andne	r3, r1
 234:	f043 6170 	orrne.w	r1, r3, #251658240	; 0xf000000
 238:	d10b      	bne.n	252 <GPIO_PinRemapConfig+0x252>
 23a:	ea4f 5354 	mov.w	r3, r4, lsr #21
 23e:	ea4f 1303 	mov.w	r3, r3, lsl #4
 242:	fa00 f303 	lsl.w	r3, r0, r3
 246:	ea6f 0303 	mvn.w	r3, r3
 24a:	ea03 0301 	and.w	r3, r3, r1
 24e:	f043 6170 	orr.w	r1, r3, #251658240	; 0xf000000
 252:	b13d      	cbz	r5, 264 <GPIO_PinRemapConfig+0x264>
 254:	ea4f 5354 	mov.w	r3, r4, lsr #21
 258:	ea4f 1303 	mov.w	r3, r3, lsl #4
 25c:	fa00 f303 	lsl.w	r3, r0, r3
 260:	ea41 0103 	orr.w	r1, r1, r3
 264:	f240 0300 	movw	r3, #0	; 0x0
 268:	f2c4 0301 	movt	r3, #16385	; 0x4001
 26c:	6059      	str	r1, [r3, #4]
 26e:	bd70      	pop	{r4, r5, r6, pc}
 270:	f04f 0001 	mov.w	r0, #1	; 0x1
 274:	f7ff fffe 	bl	0 <assert_param>
 278:	2d01      	cmp	r5, #1
 27a:	bf8c      	ite	hi
 27c:	2000      	movhi	r0, #0
 27e:	2001      	movls	r0, #1
 280:	f7ff fffe 	bl	0 <assert_param>
 284:	f240 0300 	movw	r3, #0	; 0x0
 288:	f2c4 0301 	movt	r3, #16385	; 0x4001
 28c:	6859      	ldr	r1, [r3, #4]
 28e:	f44f 4080 	mov.w	r0, #16384	; 0x4000
 292:	e7d2      	b.n	23a <assert_param+0x23a>
Disassembly of section .text.GPIO_EventOutputCmd:

00000000 <GPIO_EventOutputCmd>:
GPIO_EventOutputCmd():
   0:	b510      	push	{r4, lr}
   2:	4604      	mov	r4, r0
   4:	2801      	cmp	r0, #1
   6:	bf8c      	ite	hi
   8:	2000      	movhi	r0, #0
   a:	2001      	movls	r0, #1
   c:	f7ff fffe 	bl	0 <assert_param>
  10:	f240 031c 	movw	r3, #28	; 0x1c
  14:	f2c4 2320 	movt	r3, #16928	; 0x4220
  18:	601c      	str	r4, [r3, #0]
  1a:	bd10      	pop	{r4, pc}
Disassembly of section .text.GPIO_EventOutputConfig:

00000000 <GPIO_EventOutputConfig>:
GPIO_EventOutputConfig():
   0:	b570      	push	{r4, r5, r6, lr}
   2:	4605      	mov	r5, r0
   4:	460c      	mov	r4, r1
   6:	2804      	cmp	r0, #4
   8:	bf8c      	ite	hi
   a:	2000      	movhi	r0, #0
   c:	2001      	movls	r0, #1
   e:	f7ff fffe 	bl	0 <assert_param>
  12:	2c0f      	cmp	r4, #15
  14:	bf8c      	ite	hi
  16:	2000      	movhi	r0, #0
  18:	2001      	movls	r0, #1
  1a:	f7ff fffe 	bl	0 <assert_param>
  1e:	f240 0200 	movw	r2, #0	; 0x0
  22:	f2c4 0201 	movt	r2, #16385	; 0x4001
  26:	6811      	ldr	r1, [r2, #0]
  28:	f64f 7380 	movw	r3, #65408	; 0xff80
  2c:	f2c0 0300 	movt	r3, #0	; 0x0
  30:	ea01 0303 	and.w	r3, r1, r3
  34:	ea44 1405 	orr.w	r4, r4, r5, lsl #4
  38:	ea44 0403 	orr.w	r4, r4, r3
  3c:	6014      	str	r4, [r2, #0]
  3e:	bd70      	pop	{r4, r5, r6, pc}
Disassembly of section .text.GPIO_PinLockConfig:

00000000 <GPIO_PinLockConfig>:
GPIO_PinLockConfig():
   0:	b570      	push	{r4, r5, r6, lr}
   2:	4604      	mov	r4, r0
   4:	460d      	mov	r5, r1
   6:	f640 0200 	movw	r2, #2048	; 0x800
   a:	f2c4 0201 	movt	r2, #16385	; 0x4001
   e:	f640 4300 	movw	r3, #3072	; 0xc00
  12:	f2c4 0301 	movt	r3, #16385	; 0x4001
  16:	4298      	cmp	r0, r3
  18:	bf14      	ite	ne
  1a:	2300      	movne	r3, #0
  1c:	2301      	moveq	r3, #1
  1e:	4290      	cmp	r0, r2
  20:	bf08      	it	eq
  22:	f043 0301 	orreq.w	r3, r3, #1	; 0x1
  26:	bb53      	cbnz	r3, 7e <GPIO_PinLockConfig+0x7e>
  28:	f241 0200 	movw	r2, #4096	; 0x1000
  2c:	f2c4 0201 	movt	r2, #16385	; 0x4001
  30:	f241 4300 	movw	r3, #5120	; 0x1400
  34:	f2c4 0301 	movt	r3, #16385	; 0x4001
  38:	4298      	cmp	r0, r3
  3a:	bf14      	ite	ne
  3c:	2300      	movne	r3, #0
  3e:	2301      	moveq	r3, #1
  40:	4290      	cmp	r0, r2
  42:	bf08      	it	eq
  44:	f043 0301 	orreq.w	r3, r3, #1	; 0x1
  48:	b9cb      	cbnz	r3, 7e <GPIO_PinLockConfig+0x7e>
  4a:	f641 0200 	movw	r2, #6144	; 0x1800
  4e:	f2c4 0201 	movt	r2, #16385	; 0x4001
  52:	f641 4300 	movw	r3, #7168	; 0x1c00
  56:	f2c4 0301 	movt	r3, #16385	; 0x4001
  5a:	4298      	cmp	r0, r3
  5c:	bf14      	ite	ne
  5e:	2300      	movne	r3, #0
  60:	2301      	moveq	r3, #1
  62:	4290      	cmp	r0, r2
  64:	bf08      	it	eq
  66:	f043 0301 	orreq.w	r3, r3, #1	; 0x1
  6a:	b943      	cbnz	r3, 7e <GPIO_PinLockConfig+0x7e>
  6c:	f242 0300 	movw	r3, #8192	; 0x2000
  70:	f2c4 0301 	movt	r3, #16385	; 0x4001
  74:	4298      	cmp	r0, r3
  76:	bf14      	ite	ne
  78:	2000      	movne	r0, #0
  7a:	2001      	moveq	r0, #1
  7c:	e001      	b.n	82 <GPIO_PinLockConfig+0x82>
  7e:	f04f 0001 	mov.w	r0, #1	; 0x1
  82:	f7ff fffe 	bl	0 <assert_param>
  86:	1e28      	subs	r0, r5, #0
  88:	bf18      	it	ne
  8a:	2001      	movne	r0, #1
  8c:	f7ff fffe 	bl	0 <assert_param>
  90:	f445 3380 	orr.w	r3, r5, #65536	; 0x10000
  94:	61a3      	str	r3, [r4, #24]
  96:	61a5      	str	r5, [r4, #24]
  98:	61a3      	str	r3, [r4, #24]
  9a:	69a3      	ldr	r3, [r4, #24]
  9c:	69a0      	ldr	r0, [r4, #24]
  9e:	bd70      	pop	{r4, r5, r6, pc}
Disassembly of section .text.GPIO_Write:

00000000 <GPIO_Write>:
GPIO_Write():
   0:	b570      	push	{r4, r5, r6, lr}
   2:	4604      	mov	r4, r0
   4:	460d      	mov	r5, r1
   6:	f640 0200 	movw	r2, #2048	; 0x800
   a:	f2c4 0201 	movt	r2, #16385	; 0x4001
   e:	f640 4300 	movw	r3, #3072	; 0xc00
  12:	f2c4 0301 	movt	r3, #16385	; 0x4001
  16:	4298      	cmp	r0, r3
  18:	bf14      	ite	ne
  1a:	2300      	movne	r3, #0
  1c:	2301      	moveq	r3, #1
  1e:	4290      	cmp	r0, r2
  20:	bf08      	it	eq
  22:	f043 0301 	orreq.w	r3, r3, #1	; 0x1
  26:	bb53      	cbnz	r3, 7e <GPIO_Write+0x7e>
  28:	f241 0200 	movw	r2, #4096	; 0x1000
  2c:	f2c4 0201 	movt	r2, #16385	; 0x4001
  30:	f241 4300 	movw	r3, #5120	; 0x1400
  34:	f2c4 0301 	movt	r3, #16385	; 0x4001
  38:	4298      	cmp	r0, r3
  3a:	bf14      	ite	ne
  3c:	2300      	movne	r3, #0
  3e:	2301      	moveq	r3, #1
  40:	4290      	cmp	r0, r2
  42:	bf08      	it	eq
  44:	f043 0301 	orreq.w	r3, r3, #1	; 0x1
  48:	b9cb      	cbnz	r3, 7e <GPIO_Write+0x7e>
  4a:	f641 0200 	movw	r2, #6144	; 0x1800
  4e:	f2c4 0201 	movt	r2, #16385	; 0x4001
  52:	f641 4300 	movw	r3, #7168	; 0x1c00
  56:	f2c4 0301 	movt	r3, #16385	; 0x4001
  5a:	4298      	cmp	r0, r3
  5c:	bf14      	ite	ne
  5e:	2300      	movne	r3, #0
  60:	2301      	moveq	r3, #1
  62:	4290      	cmp	r0, r2
  64:	bf08      	it	eq
  66:	f043 0301 	orreq.w	r3, r3, #1	; 0x1
  6a:	b943      	cbnz	r3, 7e <GPIO_Write+0x7e>
  6c:	f242 0300 	movw	r3, #8192	; 0x2000
  70:	f2c4 0301 	movt	r3, #16385	; 0x4001
  74:	4298      	cmp	r0, r3
  76:	bf14      	ite	ne
  78:	2000      	movne	r0, #0
  7a:	2001      	moveq	r0, #1
  7c:	e001      	b.n	82 <GPIO_Write+0x82>
  7e:	f04f 0001 	mov.w	r0, #1	; 0x1
  82:	f7ff fffe 	bl	0 <assert_param>
  86:	60e5      	str	r5, [r4, #12]
  88:	bd70      	pop	{r4, r5, r6, pc}
  8a:	46c0      	nop			(mov r8, r8)
Disassembly of section .text.GPIO_WriteBit:

00000000 <GPIO_WriteBit>:
GPIO_WriteBit():
   0:	b570      	push	{r4, r5, r6, lr}
   2:	4605      	mov	r5, r0
   4:	460c      	mov	r4, r1
   6:	4616      	mov	r6, r2
   8:	f640 0200 	movw	r2, #2048	; 0x800
   c:	f2c4 0201 	movt	r2, #16385	; 0x4001
  10:	f640 4300 	movw	r3, #3072	; 0xc00
  14:	f2c4 0301 	movt	r3, #16385	; 0x4001
  18:	4298      	cmp	r0, r3
  1a:	bf14      	ite	ne
  1c:	2300      	movne	r3, #0
  1e:	2301      	moveq	r3, #1
  20:	4290      	cmp	r0, r2
  22:	bf08      	it	eq
  24:	f043 0301 	orreq.w	r3, r3, #1	; 0x1
  28:	bb53      	cbnz	r3, 80 <GPIO_WriteBit+0x80>
  2a:	f241 0200 	movw	r2, #4096	; 0x1000
  2e:	f2c4 0201 	movt	r2, #16385	; 0x4001
  32:	f241 4300 	movw	r3, #5120	; 0x1400
  36:	f2c4 0301 	movt	r3, #16385	; 0x4001
  3a:	4298      	cmp	r0, r3
  3c:	bf14      	ite	ne
  3e:	2300      	movne	r3, #0
  40:	2301      	moveq	r3, #1
  42:	4290      	cmp	r0, r2
  44:	bf08      	it	eq
  46:	f043 0301 	orreq.w	r3, r3, #1	; 0x1
  4a:	b9cb      	cbnz	r3, 80 <GPIO_WriteBit+0x80>
  4c:	f641 0200 	movw	r2, #6144	; 0x1800
  50:	f2c4 0201 	movt	r2, #16385	; 0x4001
  54:	f641 4300 	movw	r3, #7168	; 0x1c00
  58:	f2c4 0301 	movt	r3, #16385	; 0x4001
  5c:	4298      	cmp	r0, r3
  5e:	bf14      	ite	ne
  60:	2300      	movne	r3, #0
  62:	2301      	moveq	r3, #1
  64:	4290      	cmp	r0, r2
  66:	bf08      	it	eq
  68:	f043 0301 	orreq.w	r3, r3, #1	; 0x1
  6c:	b943      	cbnz	r3, 80 <GPIO_WriteBit+0x80>
  6e:	f242 0300 	movw	r3, #8192	; 0x2000
  72:	f2c4 0301 	movt	r3, #16385	; 0x4001
  76:	4298      	cmp	r0, r3
  78:	bf14      	ite	ne
  7a:	2000      	movne	r0, #0
  7c:	2001      	moveq	r0, #1
  7e:	e001      	b.n	84 <GPIO_WriteBit+0x84>
  80:	f04f 0001 	mov.w	r0, #1	; 0x1
  84:	f7ff fffe 	bl	0 <assert_param>
  88:	f104 32ff 	add.w	r2, r4, #4294967295	; 0xffffffff
  8c:	b292      	uxth	r2, r2
  8e:	2c04      	cmp	r4, #4
  90:	bf14      	ite	ne
  92:	2300      	movne	r3, #0
  94:	2301      	moveq	r3, #1
  96:	2a01      	cmp	r2, #1
  98:	bf98      	it	ls
  9a:	f043 0301 	orrls.w	r3, r3, #1	; 0x1
  9e:	2b00      	cmp	r3, #0
  a0:	d144      	bne.n	12c <GPIO_WriteBit+0x12c>
  a2:	2c10      	cmp	r4, #16
  a4:	bf14      	ite	ne
  a6:	2300      	movne	r3, #0
  a8:	2301      	moveq	r3, #1
  aa:	2c08      	cmp	r4, #8
  ac:	bf08      	it	eq
  ae:	f043 0301 	orreq.w	r3, r3, #1	; 0x1
  b2:	2b00      	cmp	r3, #0
  b4:	d13a      	bne.n	12c <GPIO_WriteBit+0x12c>
  b6:	2c40      	cmp	r4, #64
  b8:	bf14      	ite	ne
  ba:	2300      	movne	r3, #0
  bc:	2301      	moveq	r3, #1
  be:	2c20      	cmp	r4, #32
  c0:	bf08      	it	eq
  c2:	f043 0301 	orreq.w	r3, r3, #1	; 0x1
  c6:	2b00      	cmp	r3, #0
  c8:	d130      	bne.n	12c <GPIO_WriteBit+0x12c>
  ca:	f5b4 7f80 	cmp.w	r4, #256	; 0x100
  ce:	bf14      	ite	ne
  d0:	2300      	movne	r3, #0
  d2:	2301      	moveq	r3, #1
  d4:	2c80      	cmp	r4, #128
  d6:	bf08      	it	eq
  d8:	f043 0301 	orreq.w	r3, r3, #1	; 0x1
  dc:	bb33      	cbnz	r3, 12c <GPIO_WriteBit+0x12c>
  de:	f5b4 6f80 	cmp.w	r4, #1024	; 0x400
  e2:	bf14      	ite	ne
  e4:	2300      	movne	r3, #0
  e6:	2301      	moveq	r3, #1
  e8:	f5b4 7f00 	cmp.w	r4, #512	; 0x200
  ec:	bf08      	it	eq
  ee:	f043 0301 	orreq.w	r3, r3, #1	; 0x1
  f2:	b9db      	cbnz	r3, 12c <GPIO_WriteBit+0x12c>
  f4:	f5b4 5f80 	cmp.w	r4, #4096	; 0x1000
  f8:	bf14      	ite	ne
  fa:	2300      	movne	r3, #0
  fc:	2301      	moveq	r3, #1
  fe:	f5b4 6f00 	cmp.w	r4, #2048	; 0x800
 102:	bf08      	it	eq
 104:	f043 0301 	orreq.w	r3, r3, #1	; 0x1
 108:	b983      	cbnz	r3, 12c <GPIO_WriteBit+0x12c>
 10a:	f5b4 4f80 	cmp.w	r4, #16384	; 0x4000
 10e:	bf14      	ite	ne
 110:	2300      	movne	r3, #0
 112:	2301      	moveq	r3, #1
 114:	f5b4 5f00 	cmp.w	r4, #8192	; 0x2000
 118:	bf08      	it	eq
 11a:	f043 0301 	orreq.w	r3, r3, #1	; 0x1
 11e:	b92b      	cbnz	r3, 12c <GPIO_WriteBit+0x12c>
 120:	f5b4 4f00 	cmp.w	r4, #32768	; 0x8000
 124:	bf14      	ite	ne
 126:	2000      	movne	r0, #0
 128:	2001      	moveq	r0, #1
 12a:	e001      	b.n	130 <GPIO_WriteBit+0x130>
 12c:	f04f 0001 	mov.w	r0, #1	; 0x1
 130:	f7ff fffe 	bl	0 <assert_param>
 134:	2e01      	cmp	r6, #1
 136:	bf8c      	ite	hi
 138:	2000      	movhi	r0, #0
 13a:	2001      	movls	r0, #1
 13c:	f7ff fffe 	bl	0 <assert_param>
 140:	b10e      	cbz	r6, 146 <assert_param+0x146>
 142:	612c      	str	r4, [r5, #16]
 144:	e000      	b.n	148 <assert_param+0x148>
 146:	616c      	str	r4, [r5, #20]
 148:	bd70      	pop	{r4, r5, r6, pc}
 14a:	46c0      	nop			(mov r8, r8)
Disassembly of section .text.GPIO_ResetBits:

00000000 <GPIO_ResetBits>:
GPIO_ResetBits():
   0:	b570      	push	{r4, r5, r6, lr}
   2:	4604      	mov	r4, r0
   4:	460d      	mov	r5, r1
   6:	f640 0200 	movw	r2, #2048	; 0x800
   a:	f2c4 0201 	movt	r2, #16385	; 0x4001
   e:	f640 4300 	movw	r3, #3072	; 0xc00
  12:	f2c4 0301 	movt	r3, #16385	; 0x4001
  16:	4298      	cmp	r0, r3
  18:	bf14      	ite	ne
  1a:	2300      	movne	r3, #0
  1c:	2301      	moveq	r3, #1
  1e:	4290      	cmp	r0, r2
  20:	bf08      	it	eq
  22:	f043 0301 	orreq.w	r3, r3, #1	; 0x1
  26:	bb53      	cbnz	r3, 7e <GPIO_ResetBits+0x7e>
  28:	f241 0200 	movw	r2, #4096	; 0x1000
  2c:	f2c4 0201 	movt	r2, #16385	; 0x4001
  30:	f241 4300 	movw	r3, #5120	; 0x1400
  34:	f2c4 0301 	movt	r3, #16385	; 0x4001
  38:	4298      	cmp	r0, r3
  3a:	bf14      	ite	ne
  3c:	2300      	movne	r3, #0
  3e:	2301      	moveq	r3, #1
  40:	4290      	cmp	r0, r2
  42:	bf08      	it	eq
  44:	f043 0301 	orreq.w	r3, r3, #1	; 0x1
  48:	b9cb      	cbnz	r3, 7e <GPIO_ResetBits+0x7e>
  4a:	f641 0200 	movw	r2, #6144	; 0x1800
  4e:	f2c4 0201 	movt	r2, #16385	; 0x4001
  52:	f641 4300 	movw	r3, #7168	; 0x1c00
  56:	f2c4 0301 	movt	r3, #16385	; 0x4001
  5a:	4298      	cmp	r0, r3
  5c:	bf14      	ite	ne
  5e:	2300      	movne	r3, #0
  60:	2301      	moveq	r3, #1
  62:	4290      	cmp	r0, r2
  64:	bf08      	it	eq
  66:	f043 0301 	orreq.w	r3, r3, #1	; 0x1
  6a:	b943      	cbnz	r3, 7e <GPIO_ResetBits+0x7e>
  6c:	f242 0300 	movw	r3, #8192	; 0x2000
  70:	f2c4 0301 	movt	r3, #16385	; 0x4001
  74:	4298      	cmp	r0, r3
  76:	bf14      	ite	ne
  78:	2000      	movne	r0, #0
  7a:	2001      	moveq	r0, #1
  7c:	e001      	b.n	82 <GPIO_ResetBits+0x82>
  7e:	f04f 0001 	mov.w	r0, #1	; 0x1
  82:	f7ff fffe 	bl	0 <assert_param>
  86:	1e28      	subs	r0, r5, #0
  88:	bf18      	it	ne
  8a:	2001      	movne	r0, #1
  8c:	f7ff fffe 	bl	0 <assert_param>
  90:	6165      	str	r5, [r4, #20]
  92:	bd70      	pop	{r4, r5, r6, pc}
Disassembly of section .text.GPIO_SetBits:

00000000 <GPIO_SetBits>:
GPIO_SetBits():
   0:	b570      	push	{r4, r5, r6, lr}
   2:	4604      	mov	r4, r0
   4:	460d      	mov	r5, r1
   6:	f640 0200 	movw	r2, #2048	; 0x800
   a:	f2c4 0201 	movt	r2, #16385	; 0x4001
   e:	f640 4300 	movw	r3, #3072	; 0xc00
  12:	f2c4 0301 	movt	r3, #16385	; 0x4001
  16:	4298      	cmp	r0, r3
  18:	bf14      	ite	ne
  1a:	2300      	movne	r3, #0
  1c:	2301      	moveq	r3, #1
  1e:	4290      	cmp	r0, r2
  20:	bf08      	it	eq
  22:	f043 0301 	orreq.w	r3, r3, #1	; 0x1
  26:	bb53      	cbnz	r3, 7e <GPIO_SetBits+0x7e>
  28:	f241 0200 	movw	r2, #4096	; 0x1000
  2c:	f2c4 0201 	movt	r2, #16385	; 0x4001
  30:	f241 4300 	movw	r3, #5120	; 0x1400
  34:	f2c4 0301 	movt	r3, #16385	; 0x4001
  38:	4298      	cmp	r0, r3
  3a:	bf14      	ite	ne
  3c:	2300      	movne	r3, #0
  3e:	2301      	moveq	r3, #1
  40:	4290      	cmp	r0, r2
  42:	bf08      	it	eq
  44:	f043 0301 	orreq.w	r3, r3, #1	; 0x1
  48:	b9cb      	cbnz	r3, 7e <GPIO_SetBits+0x7e>
  4a:	f641 0200 	movw	r2, #6144	; 0x1800
  4e:	f2c4 0201 	movt	r2, #16385	; 0x4001
  52:	f641 4300 	movw	r3, #7168	; 0x1c00
  56:	f2c4 0301 	movt	r3, #16385	; 0x4001
  5a:	4298      	cmp	r0, r3
  5c:	bf14      	ite	ne
  5e:	2300      	movne	r3, #0
  60:	2301      	moveq	r3, #1
  62:	4290      	cmp	r0, r2
  64:	bf08      	it	eq
  66:	f043 0301 	orreq.w	r3, r3, #1	; 0x1
  6a:	b943      	cbnz	r3, 7e <GPIO_SetBits+0x7e>
  6c:	f242 0300 	movw	r3, #8192	; 0x2000
  70:	f2c4 0301 	movt	r3, #16385	; 0x4001
  74:	4298      	cmp	r0, r3
  76:	bf14      	ite	ne
  78:	2000      	movne	r0, #0
  7a:	2001      	moveq	r0, #1
  7c:	e001      	b.n	82 <GPIO_SetBits+0x82>
  7e:	f04f 0001 	mov.w	r0, #1	; 0x1
  82:	f7ff fffe 	bl	0 <assert_param>
  86:	1e28      	subs	r0, r5, #0
  88:	bf18      	it	ne
  8a:	2001      	movne	r0, #1
  8c:	f7ff fffe 	bl	0 <assert_param>
  90:	6125      	str	r5, [r4, #16]
  92:	bd70      	pop	{r4, r5, r6, pc}
Disassembly of section .text.GPIO_ReadOutputData:

00000000 <GPIO_ReadOutputData>:
GPIO_ReadOutputData():
   0:	b510      	push	{r4, lr}
   2:	4604      	mov	r4, r0
   4:	f640 0200 	movw	r2, #2048	; 0x800
   8:	f2c4 0201 	movt	r2, #16385	; 0x4001
   c:	f640 4300 	movw	r3, #3072	; 0xc00
  10:	f2c4 0301 	movt	r3, #16385	; 0x4001
  14:	4298      	cmp	r0, r3
  16:	bf14      	ite	ne
  18:	2300      	movne	r3, #0
  1a:	2301      	moveq	r3, #1
  1c:	4290      	cmp	r0, r2
  1e:	bf08      	it	eq
  20:	f043 0301 	orreq.w	r3, r3, #1	; 0x1
  24:	bb53      	cbnz	r3, 7c <GPIO_ReadOutputData+0x7c>
  26:	f241 0200 	movw	r2, #4096	; 0x1000
  2a:	f2c4 0201 	movt	r2, #16385	; 0x4001
  2e:	f241 4300 	movw	r3, #5120	; 0x1400
  32:	f2c4 0301 	movt	r3, #16385	; 0x4001
  36:	4298      	cmp	r0, r3
  38:	bf14      	ite	ne
  3a:	2300      	movne	r3, #0
  3c:	2301      	moveq	r3, #1
  3e:	4290      	cmp	r0, r2
  40:	bf08      	it	eq
  42:	f043 0301 	orreq.w	r3, r3, #1	; 0x1
  46:	b9cb      	cbnz	r3, 7c <GPIO_ReadOutputData+0x7c>
  48:	f641 0200 	movw	r2, #6144	; 0x1800
  4c:	f2c4 0201 	movt	r2, #16385	; 0x4001
  50:	f641 4300 	movw	r3, #7168	; 0x1c00
  54:	f2c4 0301 	movt	r3, #16385	; 0x4001
  58:	4298      	cmp	r0, r3
  5a:	bf14      	ite	ne
  5c:	2300      	movne	r3, #0
  5e:	2301      	moveq	r3, #1
  60:	4290      	cmp	r0, r2
  62:	bf08      	it	eq
  64:	f043 0301 	orreq.w	r3, r3, #1	; 0x1
  68:	b943      	cbnz	r3, 7c <GPIO_ReadOutputData+0x7c>
  6a:	f242 0300 	movw	r3, #8192	; 0x2000
  6e:	f2c4 0301 	movt	r3, #16385	; 0x4001
  72:	4298      	cmp	r0, r3
  74:	bf14      	ite	ne
  76:	2000      	movne	r0, #0
  78:	2001      	moveq	r0, #1
  7a:	e001      	b.n	80 <GPIO_ReadOutputData+0x80>
  7c:	f04f 0001 	mov.w	r0, #1	; 0x1
  80:	f7ff fffe 	bl	0 <assert_param>
  84:	68e0      	ldr	r0, [r4, #12]
  86:	b280      	uxth	r0, r0
  88:	bd10      	pop	{r4, pc}
  8a:	46c0      	nop			(mov r8, r8)
Disassembly of section .text.GPIO_ReadOutputDataBit:

00000000 <GPIO_ReadOutputDataBit>:
GPIO_ReadOutputDataBit():
   0:	b570      	push	{r4, r5, r6, lr}
   2:	4605      	mov	r5, r0
   4:	460c      	mov	r4, r1
   6:	f640 0200 	movw	r2, #2048	; 0x800
   a:	f2c4 0201 	movt	r2, #16385	; 0x4001
   e:	f640 4300 	movw	r3, #3072	; 0xc00
  12:	f2c4 0301 	movt	r3, #16385	; 0x4001
  16:	4298      	cmp	r0, r3
  18:	bf14      	ite	ne
  1a:	2300      	movne	r3, #0
  1c:	2301      	moveq	r3, #1
  1e:	4290      	cmp	r0, r2
  20:	bf08      	it	eq
  22:	f043 0301 	orreq.w	r3, r3, #1	; 0x1
  26:	bb53      	cbnz	r3, 7e <GPIO_ReadOutputDataBit+0x7e>
  28:	f241 0200 	movw	r2, #4096	; 0x1000
  2c:	f2c4 0201 	movt	r2, #16385	; 0x4001
  30:	f241 4300 	movw	r3, #5120	; 0x1400
  34:	f2c4 0301 	movt	r3, #16385	; 0x4001
  38:	4298      	cmp	r0, r3
  3a:	bf14      	ite	ne
  3c:	2300      	movne	r3, #0
  3e:	2301      	moveq	r3, #1
  40:	4290      	cmp	r0, r2
  42:	bf08      	it	eq
  44:	f043 0301 	orreq.w	r3, r3, #1	; 0x1
  48:	b9cb      	cbnz	r3, 7e <GPIO_ReadOutputDataBit+0x7e>
  4a:	f641 0200 	movw	r2, #6144	; 0x1800
  4e:	f2c4 0201 	movt	r2, #16385	; 0x4001
  52:	f641 4300 	movw	r3, #7168	; 0x1c00
  56:	f2c4 0301 	movt	r3, #16385	; 0x4001
  5a:	4298      	cmp	r0, r3
  5c:	bf14      	ite	ne
  5e:	2300      	movne	r3, #0
  60:	2301      	moveq	r3, #1
  62:	4290      	cmp	r0, r2
  64:	bf08      	it	eq
  66:	f043 0301 	orreq.w	r3, r3, #1	; 0x1
  6a:	b943      	cbnz	r3, 7e <GPIO_ReadOutputDataBit+0x7e>
  6c:	f242 0300 	movw	r3, #8192	; 0x2000
  70:	f2c4 0301 	movt	r3, #16385	; 0x4001
  74:	4298      	cmp	r0, r3
  76:	bf14      	ite	ne
  78:	2000      	movne	r0, #0
  7a:	2001      	moveq	r0, #1
  7c:	e001      	b.n	82 <GPIO_ReadOutputDataBit+0x82>
  7e:	f04f 0001 	mov.w	r0, #1	; 0x1
  82:	f7ff fffe 	bl	0 <assert_param>
  86:	f104 32ff 	add.w	r2, r4, #4294967295	; 0xffffffff
  8a:	b292      	uxth	r2, r2
  8c:	2c04      	cmp	r4, #4
  8e:	bf14      	ite	ne
  90:	2300      	movne	r3, #0
  92:	2301      	moveq	r3, #1
  94:	2a01      	cmp	r2, #1
  96:	bf98      	it	ls
  98:	f043 0301 	orrls.w	r3, r3, #1	; 0x1
  9c:	2b00      	cmp	r3, #0
  9e:	d144      	bne.n	12a <GPIO_ReadOutputDataBit+0x12a>
  a0:	2c10      	cmp	r4, #16
  a2:	bf14      	ite	ne
  a4:	2300      	movne	r3, #0
  a6:	2301      	moveq	r3, #1
  a8:	2c08      	cmp	r4, #8
  aa:	bf08      	it	eq
  ac:	f043 0301 	orreq.w	r3, r3, #1	; 0x1
  b0:	2b00      	cmp	r3, #0
  b2:	d13a      	bne.n	12a <GPIO_ReadOutputDataBit+0x12a>
  b4:	2c40      	cmp	r4, #64
  b6:	bf14      	ite	ne
  b8:	2300      	movne	r3, #0
  ba:	2301      	moveq	r3, #1
  bc:	2c20      	cmp	r4, #32
  be:	bf08      	it	eq
  c0:	f043 0301 	orreq.w	r3, r3, #1	; 0x1
  c4:	2b00      	cmp	r3, #0
  c6:	d130      	bne.n	12a <GPIO_ReadOutputDataBit+0x12a>
  c8:	f5b4 7f80 	cmp.w	r4, #256	; 0x100
  cc:	bf14      	ite	ne
  ce:	2300      	movne	r3, #0
  d0:	2301      	moveq	r3, #1
  d2:	2c80      	cmp	r4, #128
  d4:	bf08      	it	eq
  d6:	f043 0301 	orreq.w	r3, r3, #1	; 0x1
  da:	bb33      	cbnz	r3, 12a <GPIO_ReadOutputDataBit+0x12a>
  dc:	f5b4 6f80 	cmp.w	r4, #1024	; 0x400
  e0:	bf14      	ite	ne
  e2:	2300      	movne	r3, #0
  e4:	2301      	moveq	r3, #1
  e6:	f5b4 7f00 	cmp.w	r4, #512	; 0x200
  ea:	bf08      	it	eq
  ec:	f043 0301 	orreq.w	r3, r3, #1	; 0x1
  f0:	b9db      	cbnz	r3, 12a <GPIO_ReadOutputDataBit+0x12a>
  f2:	f5b4 5f80 	cmp.w	r4, #4096	; 0x1000
  f6:	bf14      	ite	ne
  f8:	2300      	movne	r3, #0
  fa:	2301      	moveq	r3, #1
  fc:	f5b4 6f00 	cmp.w	r4, #2048	; 0x800
 100:	bf08      	it	eq
 102:	f043 0301 	orreq.w	r3, r3, #1	; 0x1
 106:	b983      	cbnz	r3, 12a <GPIO_ReadOutputDataBit+0x12a>
 108:	f5b4 4f80 	cmp.w	r4, #16384	; 0x4000
 10c:	bf14      	ite	ne
 10e:	2300      	movne	r3, #0
 110:	2301      	moveq	r3, #1
 112:	f5b4 5f00 	cmp.w	r4, #8192	; 0x2000
 116:	bf08      	it	eq
 118:	f043 0301 	orreq.w	r3, r3, #1	; 0x1
 11c:	b92b      	cbnz	r3, 12a <GPIO_ReadOutputDataBit+0x12a>
 11e:	f5b4 4f00 	cmp.w	r4, #32768	; 0x8000
 122:	bf14      	ite	ne
 124:	2000      	movne	r0, #0
 126:	2001      	moveq	r0, #1
 128:	e001      	b.n	12e <GPIO_ReadOutputDataBit+0x12e>
 12a:	f04f 0001 	mov.w	r0, #1	; 0x1
 12e:	f7ff fffe 	bl	0 <assert_param>
 132:	68eb      	ldr	r3, [r5, #12]
 134:	421c      	tst	r4, r3
 136:	bf0c      	ite	eq
 138:	2000      	moveq	r0, #0
 13a:	2001      	movne	r0, #1
 13c:	bd70      	pop	{r4, r5, r6, pc}
 13e:	46c0      	nop			(mov r8, r8)
Disassembly of section .text.GPIO_ReadInputData:

00000000 <GPIO_ReadInputData>:
GPIO_ReadInputData():
   0:	b510      	push	{r4, lr}
   2:	4604      	mov	r4, r0
   4:	f640 0200 	movw	r2, #2048	; 0x800
   8:	f2c4 0201 	movt	r2, #16385	; 0x4001
   c:	f640 4300 	movw	r3, #3072	; 0xc00
  10:	f2c4 0301 	movt	r3, #16385	; 0x4001
  14:	4298      	cmp	r0, r3
  16:	bf14      	ite	ne
  18:	2300      	movne	r3, #0
  1a:	2301      	moveq	r3, #1
  1c:	4290      	cmp	r0, r2
  1e:	bf08      	it	eq
  20:	f043 0301 	orreq.w	r3, r3, #1	; 0x1
  24:	bb53      	cbnz	r3, 7c <GPIO_ReadInputData+0x7c>
  26:	f241 0200 	movw	r2, #4096	; 0x1000
  2a:	f2c4 0201 	movt	r2, #16385	; 0x4001
  2e:	f241 4300 	movw	r3, #5120	; 0x1400
  32:	f2c4 0301 	movt	r3, #16385	; 0x4001
  36:	4298      	cmp	r0, r3
  38:	bf14      	ite	ne
  3a:	2300      	movne	r3, #0
  3c:	2301      	moveq	r3, #1
  3e:	4290      	cmp	r0, r2
  40:	bf08      	it	eq
  42:	f043 0301 	orreq.w	r3, r3, #1	; 0x1
  46:	b9cb      	cbnz	r3, 7c <GPIO_ReadInputData+0x7c>
  48:	f641 0200 	movw	r2, #6144	; 0x1800
  4c:	f2c4 0201 	movt	r2, #16385	; 0x4001
  50:	f641 4300 	movw	r3, #7168	; 0x1c00
  54:	f2c4 0301 	movt	r3, #16385	; 0x4001
  58:	4298      	cmp	r0, r3
  5a:	bf14      	ite	ne
  5c:	2300      	movne	r3, #0
  5e:	2301      	moveq	r3, #1
  60:	4290      	cmp	r0, r2
  62:	bf08      	it	eq
  64:	f043 0301 	orreq.w	r3, r3, #1	; 0x1
  68:	b943      	cbnz	r3, 7c <GPIO_ReadInputData+0x7c>
  6a:	f242 0300 	movw	r3, #8192	; 0x2000
  6e:	f2c4 0301 	movt	r3, #16385	; 0x4001
  72:	4298      	cmp	r0, r3
  74:	bf14      	ite	ne
  76:	2000      	movne	r0, #0
  78:	2001      	moveq	r0, #1
  7a:	e001      	b.n	80 <GPIO_ReadInputData+0x80>
  7c:	f04f 0001 	mov.w	r0, #1	; 0x1
  80:	f7ff fffe 	bl	0 <assert_param>
  84:	68a0      	ldr	r0, [r4, #8]
  86:	b280      	uxth	r0, r0
  88:	bd10      	pop	{r4, pc}
  8a:	46c0      	nop			(mov r8, r8)
Disassembly of section .text.GPIO_ReadInputDataBit:

00000000 <GPIO_ReadInputDataBit>:
GPIO_ReadInputDataBit():
   0:	b570      	push	{r4, r5, r6, lr}
   2:	4605      	mov	r5, r0
   4:	460c      	mov	r4, r1
   6:	f640 0200 	movw	r2, #2048	; 0x800
   a:	f2c4 0201 	movt	r2, #16385	; 0x4001
   e:	f640 4300 	movw	r3, #3072	; 0xc00
  12:	f2c4 0301 	movt	r3, #16385	; 0x4001
  16:	4298      	cmp	r0, r3
  18:	bf14      	ite	ne
  1a:	2300      	movne	r3, #0
  1c:	2301      	moveq	r3, #1
  1e:	4290      	cmp	r0, r2
  20:	bf08      	it	eq
  22:	f043 0301 	orreq.w	r3, r3, #1	; 0x1
  26:	bb53      	cbnz	r3, 7e <GPIO_ReadInputDataBit+0x7e>
  28:	f241 0200 	movw	r2, #4096	; 0x1000
  2c:	f2c4 0201 	movt	r2, #16385	; 0x4001
  30:	f241 4300 	movw	r3, #5120	; 0x1400
  34:	f2c4 0301 	movt	r3, #16385	; 0x4001
  38:	4298      	cmp	r0, r3
  3a:	bf14      	ite	ne
  3c:	2300      	movne	r3, #0
  3e:	2301      	moveq	r3, #1
  40:	4290      	cmp	r0, r2
  42:	bf08      	it	eq
  44:	f043 0301 	orreq.w	r3, r3, #1	; 0x1
  48:	b9cb      	cbnz	r3, 7e <GPIO_ReadInputDataBit+0x7e>
  4a:	f641 0200 	movw	r2, #6144	; 0x1800
  4e:	f2c4 0201 	movt	r2, #16385	; 0x4001
  52:	f641 4300 	movw	r3, #7168	; 0x1c00
  56:	f2c4 0301 	movt	r3, #16385	; 0x4001
  5a:	4298      	cmp	r0, r3
  5c:	bf14      	ite	ne
  5e:	2300      	movne	r3, #0
  60:	2301      	moveq	r3, #1
  62:	4290      	cmp	r0, r2
  64:	bf08      	it	eq
  66:	f043 0301 	orreq.w	r3, r3, #1	; 0x1
  6a:	b943      	cbnz	r3, 7e <GPIO_ReadInputDataBit+0x7e>
  6c:	f242 0300 	movw	r3, #8192	; 0x2000
  70:	f2c4 0301 	movt	r3, #16385	; 0x4001
  74:	4298      	cmp	r0, r3
  76:	bf14      	ite	ne
  78:	2000      	movne	r0, #0
  7a:	2001      	moveq	r0, #1
  7c:	e001      	b.n	82 <GPIO_ReadInputDataBit+0x82>
  7e:	f04f 0001 	mov.w	r0, #1	; 0x1
  82:	f7ff fffe 	bl	0 <assert_param>
  86:	f104 32ff 	add.w	r2, r4, #4294967295	; 0xffffffff
  8a:	b292      	uxth	r2, r2
  8c:	2c04      	cmp	r4, #4
  8e:	bf14      	ite	ne
  90:	2300      	movne	r3, #0
  92:	2301      	moveq	r3, #1
  94:	2a01      	cmp	r2, #1
  96:	bf98      	it	ls
  98:	f043 0301 	orrls.w	r3, r3, #1	; 0x1
  9c:	2b00      	cmp	r3, #0
  9e:	d144      	bne.n	12a <GPIO_ReadInputDataBit+0x12a>
  a0:	2c10      	cmp	r4, #16
  a2:	bf14      	ite	ne
  a4:	2300      	movne	r3, #0
  a6:	2301      	moveq	r3, #1
  a8:	2c08      	cmp	r4, #8
  aa:	bf08      	it	eq
  ac:	f043 0301 	orreq.w	r3, r3, #1	; 0x1
  b0:	2b00      	cmp	r3, #0
  b2:	d13a      	bne.n	12a <GPIO_ReadInputDataBit+0x12a>
  b4:	2c40      	cmp	r4, #64
  b6:	bf14      	ite	ne
  b8:	2300      	movne	r3, #0
  ba:	2301      	moveq	r3, #1
  bc:	2c20      	cmp	r4, #32
  be:	bf08      	it	eq
  c0:	f043 0301 	orreq.w	r3, r3, #1	; 0x1
  c4:	2b00      	cmp	r3, #0
  c6:	d130      	bne.n	12a <GPIO_ReadInputDataBit+0x12a>
  c8:	f5b4 7f80 	cmp.w	r4, #256	; 0x100
  cc:	bf14      	ite	ne
  ce:	2300      	movne	r3, #0
  d0:	2301      	moveq	r3, #1
  d2:	2c80      	cmp	r4, #128
  d4:	bf08      	it	eq
  d6:	f043 0301 	orreq.w	r3, r3, #1	; 0x1
  da:	bb33      	cbnz	r3, 12a <GPIO_ReadInputDataBit+0x12a>
  dc:	f5b4 6f80 	cmp.w	r4, #1024	; 0x400
  e0:	bf14      	ite	ne
  e2:	2300      	movne	r3, #0
  e4:	2301      	moveq	r3, #1
  e6:	f5b4 7f00 	cmp.w	r4, #512	; 0x200
  ea:	bf08      	it	eq
  ec:	f043 0301 	orreq.w	r3, r3, #1	; 0x1
  f0:	b9db      	cbnz	r3, 12a <GPIO_ReadInputDataBit+0x12a>
  f2:	f5b4 5f80 	cmp.w	r4, #4096	; 0x1000
  f6:	bf14      	ite	ne
  f8:	2300      	movne	r3, #0
  fa:	2301      	moveq	r3, #1
  fc:	f5b4 6f00 	cmp.w	r4, #2048	; 0x800
 100:	bf08      	it	eq
 102:	f043 0301 	orreq.w	r3, r3, #1	; 0x1
 106:	b983      	cbnz	r3, 12a <GPIO_ReadInputDataBit+0x12a>
 108:	f5b4 4f80 	cmp.w	r4, #16384	; 0x4000
 10c:	bf14      	ite	ne
 10e:	2300      	movne	r3, #0
 110:	2301      	moveq	r3, #1
 112:	f5b4 5f00 	cmp.w	r4, #8192	; 0x2000
 116:	bf08      	it	eq
 118:	f043 0301 	orreq.w	r3, r3, #1	; 0x1
 11c:	b92b      	cbnz	r3, 12a <GPIO_ReadInputDataBit+0x12a>
 11e:	f5b4 4f00 	cmp.w	r4, #32768	; 0x8000
 122:	bf14      	ite	ne
 124:	2000      	movne	r0, #0
 126:	2001      	moveq	r0, #1
 128:	e001      	b.n	12e <GPIO_ReadInputDataBit+0x12e>
 12a:	f04f 0001 	mov.w	r0, #1	; 0x1
 12e:	f7ff fffe 	bl	0 <assert_param>
 132:	68ab      	ldr	r3, [r5, #8]
 134:	421c      	tst	r4, r3
 136:	bf0c      	ite	eq
 138:	2000      	moveq	r0, #0
 13a:	2001      	movne	r0, #1
 13c:	bd70      	pop	{r4, r5, r6, pc}
 13e:	46c0      	nop			(mov r8, r8)
Disassembly of section .text.GPIO_Init:

00000000 <GPIO_Init>:
GPIO_Init():
   0:	e92d 41f0 	stmdb	sp!, {r4, r5, r6, r7, r8, lr}
   4:	4607      	mov	r7, r0
   6:	460d      	mov	r5, r1
   8:	f640 0200 	movw	r2, #2048	; 0x800
   c:	f2c4 0201 	movt	r2, #16385	; 0x4001
  10:	f640 4300 	movw	r3, #3072	; 0xc00
  14:	f2c4 0301 	movt	r3, #16385	; 0x4001
  18:	4298      	cmp	r0, r3
  1a:	bf14      	ite	ne
  1c:	2300      	movne	r3, #0
  1e:	2301      	moveq	r3, #1
  20:	4290      	cmp	r0, r2
  22:	bf08      	it	eq
  24:	f043 0301 	orreq.w	r3, r3, #1	; 0x1
  28:	bb53      	cbnz	r3, 80 <GPIO_Init+0x80>
  2a:	f241 0200 	movw	r2, #4096	; 0x1000
  2e:	f2c4 0201 	movt	r2, #16385	; 0x4001
  32:	f241 4300 	movw	r3, #5120	; 0x1400
  36:	f2c4 0301 	movt	r3, #16385	; 0x4001
  3a:	4298      	cmp	r0, r3
  3c:	bf14      	ite	ne
  3e:	2300      	movne	r3, #0
  40:	2301      	moveq	r3, #1
  42:	4290      	cmp	r0, r2
  44:	bf08      	it	eq
  46:	f043 0301 	orreq.w	r3, r3, #1	; 0x1
  4a:	b9cb      	cbnz	r3, 80 <GPIO_Init+0x80>
  4c:	f641 0200 	movw	r2, #6144	; 0x1800
  50:	f2c4 0201 	movt	r2, #16385	; 0x4001
  54:	f641 4300 	movw	r3, #7168	; 0x1c00
  58:	f2c4 0301 	movt	r3, #16385	; 0x4001
  5c:	4298      	cmp	r0, r3
  5e:	bf14      	ite	ne
  60:	2300      	movne	r3, #0
  62:	2301      	moveq	r3, #1
  64:	4290      	cmp	r0, r2
  66:	bf08      	it	eq
  68:	f043 0301 	orreq.w	r3, r3, #1	; 0x1
  6c:	b943      	cbnz	r3, 80 <GPIO_Init+0x80>
  6e:	f242 0300 	movw	r3, #8192	; 0x2000
  72:	f2c4 0301 	movt	r3, #16385	; 0x4001
  76:	4298      	cmp	r0, r3
  78:	bf14      	ite	ne
  7a:	2000      	movne	r0, #0
  7c:	2001      	moveq	r0, #1
  7e:	e001      	b.n	84 <GPIO_Init+0x84>
  80:	f04f 0001 	mov.w	r0, #1	; 0x1
  84:	f7ff fffe 	bl	0 <assert_param>
  88:	78e8      	ldrb	r0, [r5, #3]
  8a:	2804      	cmp	r0, #4
  8c:	bf14      	ite	ne
  8e:	2300      	movne	r3, #0
  90:	2301      	moveq	r3, #1
  92:	2800      	cmp	r0, #0
  94:	bf08      	it	eq
  96:	f043 0301 	orreq.w	r3, r3, #1	; 0x1
  9a:	b973      	cbnz	r3, ba <GPIO_Init+0xba>
  9c:	2828      	cmp	r0, #40
  9e:	d00c      	beq.n	ba <GPIO_Init+0xba>
  a0:	2848      	cmp	r0, #72
  a2:	d00a      	beq.n	ba <GPIO_Init+0xba>
  a4:	2814      	cmp	r0, #20
  a6:	d008      	beq.n	ba <GPIO_Init+0xba>
  a8:	2810      	cmp	r0, #16
  aa:	d006      	beq.n	ba <GPIO_Init+0xba>
  ac:	281c      	cmp	r0, #28
  ae:	d004      	beq.n	ba <GPIO_Init+0xba>
  b0:	2818      	cmp	r0, #24
  b2:	bf14      	ite	ne
  b4:	2000      	movne	r0, #0
  b6:	2001      	moveq	r0, #1
  b8:	e001      	b.n	be <GPIO_Init+0xbe>
  ba:	f04f 0001 	mov.w	r0, #1	; 0x1
  be:	f7ff fffe 	bl	0 <assert_param>
  c2:	8828      	ldrh	r0, [r5, #0]
  c4:	3800      	subs	r0, #0
  c6:	bf18      	it	ne
  c8:	2001      	movne	r0, #1
  ca:	f7ff fffe 	bl	0 <assert_param>
  ce:	78eb      	ldrb	r3, [r5, #3]
  d0:	f003 080f 	and.w	r8, r3, #15	; 0xf
  d4:	f013 0f10 	tst.w	r3, #16	; 0x10
  d8:	d00c      	beq.n	f4 <GPIO_Init+0xf4>
  da:	78a8      	ldrb	r0, [r5, #2]
  dc:	f100 30ff 	add.w	r0, r0, #4294967295	; 0xffffffff
  e0:	b2c0      	uxtb	r0, r0
  e2:	2802      	cmp	r0, #2
  e4:	bf8c      	ite	hi
  e6:	2000      	movhi	r0, #0
  e8:	2001      	movls	r0, #1
  ea:	f7ff fffe 	bl	0 <assert_param>
  ee:	78ab      	ldrb	r3, [r5, #2]
  f0:	ea48 0803 	orr.w	r8, r8, r3
  f4:	782b      	ldrb	r3, [r5, #0]
  f6:	b333      	cbz	r3, 146 <assert_param+0x146>
  f8:	683c      	ldr	r4, [r7, #0]
  fa:	f04f 0100 	mov.w	r1, #0	; 0x0
  fe:	f04f 0601 	mov.w	r6, #1	; 0x1
 102:	f04f 0e0f 	mov.w	lr, #15	; 0xf
 106:	fa06 f201 	lsl.w	r2, r6, r1
 10a:	882b      	ldrh	r3, [r5, #0]
 10c:	ea02 0003 	and.w	r0, r2, r3
 110:	4290      	cmp	r0, r2
 112:	d113      	bne.n	13c <assert_param+0x13c>
 114:	ea4f 0281 	mov.w	r2, r1, lsl #2
 118:	fa0e f302 	lsl.w	r3, lr, r2
 11c:	ea6f 0303 	mvn.w	r3, r3
 120:	ea03 0304 	and.w	r3, r3, r4
 124:	fa08 f202 	lsl.w	r2, r8, r2
 128:	ea43 0402 	orr.w	r4, r3, r2
 12c:	78eb      	ldrb	r3, [r5, #3]
 12e:	2b28      	cmp	r3, #40
 130:	bf08      	it	eq
 132:	6178      	streq	r0, [r7, #20]
 134:	d002      	beq.n	13c <assert_param+0x13c>
 136:	2b48      	cmp	r3, #72
 138:	bf08      	it	eq
 13a:	6138      	streq	r0, [r7, #16]
 13c:	f101 0101 	add.w	r1, r1, #1	; 0x1
 140:	2908      	cmp	r1, #8
 142:	d1e0      	bne.n	106 <assert_param+0x106>
 144:	603c      	str	r4, [r7, #0]
 146:	882b      	ldrh	r3, [r5, #0]
 148:	2bff      	cmp	r3, #255
 14a:	d928      	bls.n	19e <assert_param+0x19e>
 14c:	687e      	ldr	r6, [r7, #4]
 14e:	f04f 0100 	mov.w	r1, #0	; 0x0
 152:	f04f 0e01 	mov.w	lr, #1	; 0x1
 156:	f04f 0c0f 	mov.w	ip, #15	; 0xf
 15a:	f101 0308 	add.w	r3, r1, #8	; 0x8
 15e:	fa0e f003 	lsl.w	r0, lr, r3
 162:	882b      	ldrh	r3, [r5, #0]
 164:	ea00 0403 	and.w	r4, r0, r3
 168:	4284      	cmp	r4, r0
 16a:	d113      	bne.n	194 <assert_param+0x194>
 16c:	ea4f 0381 	mov.w	r3, r1, lsl #2
 170:	fa0c f203 	lsl.w	r2, ip, r3
 174:	ea6f 0202 	mvn.w	r2, r2
 178:	ea02 0206 	and.w	r2, r2, r6
 17c:	fa08 f303 	lsl.w	r3, r8, r3
 180:	ea42 0603 	orr.w	r6, r2, r3
 184:	78eb      	ldrb	r3, [r5, #3]
 186:	2b28      	cmp	r3, #40
 188:	bf08      	it	eq
 18a:	617c      	streq	r4, [r7, #20]
 18c:	78eb      	ldrb	r3, [r5, #3]
 18e:	2b48      	cmp	r3, #72
 190:	bf08      	it	eq
 192:	6138      	streq	r0, [r7, #16]
 194:	f101 0101 	add.w	r1, r1, #1	; 0x1
 198:	2908      	cmp	r1, #8
 19a:	d1de      	bne.n	15a <assert_param+0x15a>
 19c:	607e      	str	r6, [r7, #4]
 19e:	e8bd 81f0 	ldmia.w	sp!, {r4, r5, r6, r7, r8, pc}
 1a2:	46c0      	nop			(mov r8, r8)
Disassembly of section .text.GPIO_AFIODeInit:

00000000 <GPIO_AFIODeInit>:
GPIO_AFIODeInit():
   0:	b510      	push	{r4, lr}
   2:	f04f 0001 	mov.w	r0, #1	; 0x1
   6:	4601      	mov	r1, r0
   8:	f7ff fffe 	bl	0 <RCC_APB2PeriphResetCmd>
   c:	f04f 0001 	mov.w	r0, #1	; 0x1
  10:	f04f 0100 	mov.w	r1, #0	; 0x0
  14:	f7ff fffe 	bl	0 <RCC_APB2PeriphResetCmd>
  18:	bd10      	pop	{r4, pc}
  1a:	46c0      	nop			(mov r8, r8)
Disassembly of section .text.GPIO_DeInit:

00000000 <GPIO_DeInit>:
GPIO_DeInit():
   0:	b570      	push	{r4, r5, r6, lr}
   2:	4604      	mov	r4, r0
   4:	f640 0300 	movw	r3, #2048	; 0x800
   8:	f2c4 0301 	movt	r3, #16385	; 0x4001
   c:	4298      	cmp	r0, r3
   e:	bf14      	ite	ne
  10:	2500      	movne	r5, #0
  12:	2501      	moveq	r5, #1
  14:	f640 4300 	movw	r3, #3072	; 0xc00
  18:	f2c4 0301 	movt	r3, #16385	; 0x4001
  1c:	4298      	cmp	r0, r3
  1e:	bf14      	ite	ne
  20:	2600      	movne	r6, #0
  22:	2601      	moveq	r6, #1
  24:	ea55 0306 	orrs.w	r3, r5, r6
  28:	d12a      	bne.n	80 <GPIO_DeInit+0x80>
  2a:	f241 0200 	movw	r2, #4096	; 0x1000
  2e:	f2c4 0201 	movt	r2, #16385	; 0x4001
  32:	f241 4300 	movw	r3, #5120	; 0x1400
  36:	f2c4 0301 	movt	r3, #16385	; 0x4001
  3a:	4298      	cmp	r0, r3
  3c:	bf14      	ite	ne
  3e:	2300      	movne	r3, #0
  40:	2301      	moveq	r3, #1
  42:	4290      	cmp	r0, r2
  44:	bf08      	it	eq
  46:	f043 0301 	orreq.w	r3, r3, #1	; 0x1
  4a:	b9cb      	cbnz	r3, 80 <GPIO_DeInit+0x80>
  4c:	f641 0200 	movw	r2, #6144	; 0x1800
  50:	f2c4 0201 	movt	r2, #16385	; 0x4001
  54:	f641 4300 	movw	r3, #7168	; 0x1c00
  58:	f2c4 0301 	movt	r3, #16385	; 0x4001
  5c:	4298      	cmp	r0, r3
  5e:	bf14      	ite	ne
  60:	2300      	movne	r3, #0
  62:	2301      	moveq	r3, #1
  64:	4290      	cmp	r0, r2
  66:	bf08      	it	eq
  68:	f043 0301 	orreq.w	r3, r3, #1	; 0x1
  6c:	b943      	cbnz	r3, 80 <GPIO_DeInit+0x80>
  6e:	f242 0300 	movw	r3, #8192	; 0x2000
  72:	f2c4 0301 	movt	r3, #16385	; 0x4001
  76:	4298      	cmp	r0, r3
  78:	bf18      	it	ne
  7a:	2000      	movne	r0, #0
  7c:	d102      	bne.n	84 <GPIO_DeInit+0x84>
  7e:	e07e      	b.n	17e <GPIO_DeInit+0x17e>
  80:	f04f 0001 	mov.w	r0, #1	; 0x1
  84:	f7ff fffe 	bl	0 <assert_param>
  88:	b165      	cbz	r5, a4 <GPIO_DeInit+0xa4>
  8a:	f04f 0004 	mov.w	r0, #4	; 0x4
  8e:	f04f 0101 	mov.w	r1, #1	; 0x1
  92:	f7ff fffe 	bl	0 <RCC_APB2PeriphResetCmd>
  96:	f04f 0004 	mov.w	r0, #4	; 0x4
  9a:	f04f 0100 	mov.w	r1, #0	; 0x0
  9e:	f7ff fffe 	bl	0 <RCC_APB2PeriphResetCmd>
  a2:	e071      	b.n	188 <GPIO_DeInit+0x188>
  a4:	b166      	cbz	r6, c0 <GPIO_DeInit+0xc0>
  a6:	f04f 0008 	mov.w	r0, #8	; 0x8
  aa:	f04f 0101 	mov.w	r1, #1	; 0x1
  ae:	f7ff fffe 	bl	0 <RCC_APB2PeriphResetCmd>
  b2:	f04f 0008 	mov.w	r0, #8	; 0x8
  b6:	f04f 0100 	mov.w	r1, #0	; 0x0
  ba:	f7ff fffe 	bl	0 <RCC_APB2PeriphResetCmd>
  be:	e063      	b.n	188 <GPIO_DeInit+0x188>
  c0:	f241 0300 	movw	r3, #4096	; 0x1000
  c4:	f2c4 0301 	movt	r3, #16385	; 0x4001
  c8:	429c      	cmp	r4, r3
  ca:	d10c      	bne.n	e6 <GPIO_DeInit+0xe6>
  cc:	f04f 0010 	mov.w	r0, #16	; 0x10
  d0:	f04f 0101 	mov.w	r1, #1	; 0x1
  d4:	f7ff fffe 	bl	0 <RCC_APB2PeriphResetCmd>
  d8:	f04f 0010 	mov.w	r0, #16	; 0x10
  dc:	f04f 0100 	mov.w	r1, #0	; 0x0
  e0:	f7ff fffe 	bl	0 <RCC_APB2PeriphResetCmd>
  e4:	e050      	b.n	188 <GPIO_DeInit+0x188>
  e6:	f241 4300 	movw	r3, #5120	; 0x1400
  ea:	f2c4 0301 	movt	r3, #16385	; 0x4001
  ee:	429c      	cmp	r4, r3
  f0:	d10c      	bne.n	10c <GPIO_DeInit+0x10c>
  f2:	f04f 0020 	mov.w	r0, #32	; 0x20
  f6:	f04f 0101 	mov.w	r1, #1	; 0x1
  fa:	f7ff fffe 	bl	0 <RCC_APB2PeriphResetCmd>
  fe:	f04f 0020 	mov.w	r0, #32	; 0x20
 102:	f04f 0100 	mov.w	r1, #0	; 0x0
 106:	f7ff fffe 	bl	0 <RCC_APB2PeriphResetCmd>
 10a:	e03d      	b.n	188 <GPIO_DeInit+0x188>
 10c:	f641 0300 	movw	r3, #6144	; 0x1800
 110:	f2c4 0301 	movt	r3, #16385	; 0x4001
 114:	429c      	cmp	r4, r3
 116:	d10c      	bne.n	132 <GPIO_DeInit+0x132>
 118:	f04f 0040 	mov.w	r0, #64	; 0x40
 11c:	f04f 0101 	mov.w	r1, #1	; 0x1
 120:	f7ff fffe 	bl	0 <RCC_APB2PeriphResetCmd>
 124:	f04f 0040 	mov.w	r0, #64	; 0x40
 128:	f04f 0100 	mov.w	r1, #0	; 0x0
 12c:	f7ff fffe 	bl	0 <RCC_APB2PeriphResetCmd>
 130:	e02a      	b.n	188 <GPIO_DeInit+0x188>
 132:	f641 4300 	movw	r3, #7168	; 0x1c00
 136:	f2c4 0301 	movt	r3, #16385	; 0x4001
 13a:	429c      	cmp	r4, r3
 13c:	d10c      	bne.n	158 <GPIO_DeInit+0x158>
 13e:	f04f 0080 	mov.w	r0, #128	; 0x80
 142:	f04f 0101 	mov.w	r1, #1	; 0x1
 146:	f7ff fffe 	bl	0 <RCC_APB2PeriphResetCmd>
 14a:	f04f 0080 	mov.w	r0, #128	; 0x80
 14e:	f04f 0100 	mov.w	r1, #0	; 0x0
 152:	f7ff fffe 	bl	0 <RCC_APB2PeriphResetCmd>
 156:	e017      	b.n	188 <GPIO_DeInit+0x188>
 158:	f242 0300 	movw	r3, #8192	; 0x2000
 15c:	f2c4 0301 	movt	r3, #16385	; 0x4001
 160:	429c      	cmp	r4, r3
 162:	d111      	bne.n	188 <GPIO_DeInit+0x188>
 164:	f44f 7080 	mov.w	r0, #256	; 0x100
 168:	f04f 0101 	mov.w	r1, #1	; 0x1
 16c:	f7ff fffe 	bl	0 <RCC_APB2PeriphResetCmd>
 170:	f44f 7080 	mov.w	r0, #256	; 0x100
 174:	f04f 0100 	mov.w	r1, #0	; 0x0
 178:	f7ff fffe 	bl	0 <RCC_APB2PeriphResetCmd>
 17c:	e004      	b.n	188 <GPIO_DeInit+0x188>
 17e:	f04f 0001 	mov.w	r0, #1	; 0x1
 182:	f7ff fffe 	bl	0 <assert_param>
 186:	e78d      	b.n	a4 <assert_param+0xa4>
 188:	bd70      	pop	{r4, r5, r6, pc}
 18a:	46c0      	nop			(mov r8, r8)
