
C:\cortex\gateway\out\stm32f10x_bkp.o:     file format elf32-littlearm
C:\cortex\gateway\out\stm32f10x_bkp.o


Disassembly of section .text.BKP_DeInit:

00000000 <BKP_DeInit>:
BKP_DeInit():
C:\cortex\gateway\stlibrary\src/stm32f10x_bkp.c:74
* Output         : None
* Return         : None
*******************************************************************************/
void BKP_DeInit(void)
{
  RCC_BackupResetCmd(ENABLE);
   0:	2001      	movs	r0, #1
C:\cortex\gateway\stlibrary\src/stm32f10x_bkp.c:73
* Input          : None
* Output         : None
* Return         : None
*******************************************************************************/
void BKP_DeInit(void)
{
   2:	b510      	push	{r4, lr}
C:\cortex\gateway\stlibrary\src/stm32f10x_bkp.c:74
  RCC_BackupResetCmd(ENABLE);
   4:	f7ff fffe 	bl	0 <RCC_BackupResetCmd>
C:\cortex\gateway\stlibrary\src/stm32f10x_bkp.c:75
  RCC_BackupResetCmd(DISABLE);
   8:	2000      	movs	r0, #0
C:\cortex\gateway\stlibrary\src/stm32f10x_bkp.c:76
}
   a:	e8bd 4010 	ldmia.w	sp!, {r4, lr}
C:\cortex\gateway\stlibrary\src/stm32f10x_bkp.c:75
* Return         : None
*******************************************************************************/
void BKP_DeInit(void)
{
  RCC_BackupResetCmd(ENABLE);
  RCC_BackupResetCmd(DISABLE);
   e:	f7ff bffe 	b.w	0 <RCC_BackupResetCmd>

Disassembly of section .text.BKP_TamperPinLevelConfig:

00000000 <BKP_TamperPinLevelConfig>:
BKP_TamperPinLevelConfig():
C:\cortex\gateway\stlibrary\src/stm32f10x_bkp.c:93
void BKP_TamperPinLevelConfig(u16 BKP_TamperPinLevel)
{
  /* Check the parameters */
  assert_param(IS_BKP_TAMPER_PIN_LEVEL(BKP_TamperPinLevel));

  *(vu32 *) CR_TPAL_BB = BKP_TamperPinLevel;
   0:	4b01      	ldr	r3, [pc, #4]	; (8 <BKP_TamperPinLevelConfig+0x8>)
   2:	6018      	str	r0, [r3, #0]
C:\cortex\gateway\stlibrary\src/stm32f10x_bkp.c:94
}
   4:	4770      	bx	lr
   6:	bf00      	nop
   8:	420d8604 	.word	0x420d8604

Disassembly of section .text.BKP_TamperPinCmd:

00000000 <BKP_TamperPinCmd>:
BKP_TamperPinCmd():
C:\cortex\gateway\stlibrary\src/stm32f10x_bkp.c:109
void BKP_TamperPinCmd(FunctionalState NewState)
{
  /* Check the parameters */
  assert_param(IS_FUNCTIONAL_STATE(NewState));

  *(vu32 *) CR_TPE_BB = (u32)NewState;
   0:	4b01      	ldr	r3, [pc, #4]	; (8 <BKP_TamperPinCmd+0x8>)
   2:	6018      	str	r0, [r3, #0]
C:\cortex\gateway\stlibrary\src/stm32f10x_bkp.c:110
}
   4:	4770      	bx	lr
   6:	bf00      	nop
   8:	420d8600 	.word	0x420d8600

Disassembly of section .text.BKP_ITConfig:

00000000 <BKP_ITConfig>:
BKP_ITConfig():
C:\cortex\gateway\stlibrary\src/stm32f10x_bkp.c:125
void BKP_ITConfig(FunctionalState NewState)
{
  /* Check the parameters */
  assert_param(IS_FUNCTIONAL_STATE(NewState));

  *(vu32 *) CSR_TPIE_BB = (u32)NewState;
   0:	4b01      	ldr	r3, [pc, #4]	; (8 <BKP_ITConfig+0x8>)
   2:	6018      	str	r0, [r3, #0]
C:\cortex\gateway\stlibrary\src/stm32f10x_bkp.c:126
}
   4:	4770      	bx	lr
   6:	bf00      	nop
   8:	420d8688 	.word	0x420d8688

Disassembly of section .text.BKP_RTCOutputConfig:

00000000 <BKP_RTCOutputConfig>:
BKP_RTCOutputConfig():
C:\cortex\gateway\stlibrary\src/stm32f10x_bkp.c:150
  u16 tmpreg = 0;

  /* Check the parameters */
  assert_param(IS_BKP_RTC_OUTPUT_SOURCE(BKP_RTCOutputSource));

  tmpreg = BKP->RTCCR;
   0:	4a04      	ldr	r2, [pc, #16]	; (14 <BKP_RTCOutputConfig+0x14>)
   2:	8d93      	ldrh	r3, [r2, #44]	; 0x2c
C:\cortex\gateway\stlibrary\src/stm32f10x_bkp.c:153

  /* Clear CCO, ASOE and ASOS bits */
  tmpreg &= RTCCR_Mask;
   4:	f423 7360 	bic.w	r3, r3, #896	; 0x380
   8:	041b      	lsls	r3, r3, #16
   a:	0c1b      	lsrs	r3, r3, #16
C:\cortex\gateway\stlibrary\src/stm32f10x_bkp.c:156
  
  /* Set CCO, ASOE and ASOS bits according to BKP_RTCOutputSource value */
  tmpreg |= BKP_RTCOutputSource;
   c:	ea40 0303 	orr.w	r3, r0, r3
C:\cortex\gateway\stlibrary\src/stm32f10x_bkp.c:159

  /* Store the new value */
  BKP->RTCCR = tmpreg;
  10:	8593      	strh	r3, [r2, #44]	; 0x2c
C:\cortex\gateway\stlibrary\src/stm32f10x_bkp.c:160
}
  12:	4770      	bx	lr
  14:	40006c00 	.word	0x40006c00

Disassembly of section .text.BKP_SetRTCCalibrationValue:

00000000 <BKP_SetRTCCalibrationValue>:
BKP_SetRTCCalibrationValue():
C:\cortex\gateway\stlibrary\src/stm32f10x_bkp.c:177
  u16 tmpreg = 0;

  /* Check the parameters */
  assert_param(IS_BKP_CALIBRATION_VALUE(CalibrationValue));

  tmpreg = BKP->RTCCR;
   0:	4a04      	ldr	r2, [pc, #16]	; (14 <BKP_SetRTCCalibrationValue+0x14>)
   2:	8d93      	ldrh	r3, [r2, #44]	; 0x2c
C:\cortex\gateway\stlibrary\src/stm32f10x_bkp.c:180

  /* Clear CAL[6:0] bits */
  tmpreg &= RTCCR_CAL_Mask;
   4:	f023 037f 	bic.w	r3, r3, #127	; 0x7f
   8:	041b      	lsls	r3, r3, #16
   a:	0c1b      	lsrs	r3, r3, #16
C:\cortex\gateway\stlibrary\src/stm32f10x_bkp.c:183

  /* Set CAL[6:0] bits according to CalibrationValue value */
  tmpreg |= CalibrationValue;
   c:	ea40 0303 	orr.w	r3, r0, r3
C:\cortex\gateway\stlibrary\src/stm32f10x_bkp.c:186

  /* Store the new value */
  BKP->RTCCR = tmpreg;
  10:	8593      	strh	r3, [r2, #44]	; 0x2c
C:\cortex\gateway\stlibrary\src/stm32f10x_bkp.c:187
}
  12:	4770      	bx	lr
  14:	40006c00 	.word	0x40006c00

Disassembly of section .text.BKP_WriteBackupRegister:

00000000 <BKP_WriteBackupRegister>:
BKP_WriteBackupRegister():
C:\cortex\gateway\stlibrary\src/stm32f10x_bkp.c:203
void BKP_WriteBackupRegister(u16 BKP_DR, u16 Data)
{
  /* Check the parameters */
  assert_param(IS_BKP_DR(BKP_DR));

  *(vu16 *) (BKP_BASE + BKP_DR) = Data;
   0:	f100 4080 	add.w	r0, r0, #1073741824	; 0x40000000
   4:	f500 40d8 	add.w	r0, r0, #27648	; 0x6c00
   8:	8001      	strh	r1, [r0, #0]
C:\cortex\gateway\stlibrary\src/stm32f10x_bkp.c:204
}
   a:	4770      	bx	lr

Disassembly of section .text.BKP_ReadBackupRegister:

00000000 <BKP_ReadBackupRegister>:
BKP_ReadBackupRegister():
C:\cortex\gateway\stlibrary\src/stm32f10x_bkp.c:219
u16 BKP_ReadBackupRegister(u16 BKP_DR)
{
  /* Check the parameters */
  assert_param(IS_BKP_DR(BKP_DR));

  return (*(vu16 *) (BKP_BASE + BKP_DR));
   0:	f100 4080 	add.w	r0, r0, #1073741824	; 0x40000000
   4:	f500 40d8 	add.w	r0, r0, #27648	; 0x6c00
   8:	8800      	ldrh	r0, [r0, #0]
C:\cortex\gateway\stlibrary\src/stm32f10x_bkp.c:220
}
   a:	b280      	uxth	r0, r0
   c:	4770      	bx	lr

Disassembly of section .text.BKP_GetFlagStatus:

00000000 <BKP_GetFlagStatus>:
BKP_GetFlagStatus():
C:\cortex\gateway\stlibrary\src/stm32f10x_bkp.c:231
* Output         : None
* Return         : The new state of the Tamper Pin Event flag (SET or RESET).
*******************************************************************************/
FlagStatus BKP_GetFlagStatus(void)
{
  return (FlagStatus)(*(vu32 *) CSR_TEF_BB);
   0:	4b01      	ldr	r3, [pc, #4]	; (8 <BKP_GetFlagStatus+0x8>)
   2:	6818      	ldr	r0, [r3, #0]
C:\cortex\gateway\stlibrary\src/stm32f10x_bkp.c:232
}
   4:	b2c0      	uxtb	r0, r0
   6:	4770      	bx	lr
   8:	420d86a0 	.word	0x420d86a0

Disassembly of section .text.BKP_ClearFlag:

00000000 <BKP_ClearFlag>:
BKP_ClearFlag():
C:\cortex\gateway\stlibrary\src/stm32f10x_bkp.c:244
* Return         : None
*******************************************************************************/
void BKP_ClearFlag(void)
{
  /* Set CTE bit to clear Tamper Pin Event flag */
  BKP->CSR |= CSR_CTE_Set;
   0:	4b03      	ldr	r3, [pc, #12]	; (10 <BKP_ClearFlag+0x10>)
   2:	8e9a      	ldrh	r2, [r3, #52]	; 0x34
   4:	b292      	uxth	r2, r2
   6:	f042 0201 	orr.w	r2, r2, #1
   a:	869a      	strh	r2, [r3, #52]	; 0x34
C:\cortex\gateway\stlibrary\src/stm32f10x_bkp.c:245
}
   c:	4770      	bx	lr
   e:	bf00      	nop
  10:	40006c00 	.word	0x40006c00

Disassembly of section .text.BKP_GetITStatus:

00000000 <BKP_GetITStatus>:
BKP_GetITStatus():
C:\cortex\gateway\stlibrary\src/stm32f10x_bkp.c:256
* Output         : None
* Return         : The new state of the Tamper Pin Interrupt (SET or RESET).
*******************************************************************************/
ITStatus BKP_GetITStatus(void)
{
  return (ITStatus)(*(vu32 *) CSR_TIF_BB);
   0:	68184b01 	.word	0x68184b01
C:\cortex\gateway\stlibrary\src/stm32f10x_bkp.c:257
}
   4:	b2c0      	uxtb	r0, r0
   6:	4770      	bx	lr
   8:	420d86a4 	.word	0x420d86a4

Disassembly of section .text.BKP_ClearITPendingBit:

00000000 <BKP_ClearITPendingBit>:
BKP_ClearITPendingBit():
C:\cortex\gateway\stlibrary\src/stm32f10x_bkp.c:269
* Return         : None
*******************************************************************************/
void BKP_ClearITPendingBit(void)
{
  /* Set CTI bit to clear Tamper Pin Interrupt pending bit */
  BKP->CSR |= CSR_CTI_Set;
   0:	4b03      	ldr	r3, [pc, #12]	; (10 <BKP_ClearITPendingBit+0x10>)
   2:	8e9a      	ldrh	r2, [r3, #52]	; 0x34
   4:	b292      	uxth	r2, r2
   6:	f042 0202 	orr.w	r2, r2, #2
   a:	869a      	strh	r2, [r3, #52]	; 0x34
C:\cortex\gateway\stlibrary\src/stm32f10x_bkp.c:270
}
   c:	4770      	bx	lr
   e:	bf00      	nop
  10:	40006c00 	.word	0x40006c00
