
C:\cortex\dimmers\hex\stm32f10x_it.o:     file format elf32-littlearm
C:\cortex\dimmers\hex\stm32f10x_it.o


Disassembly of section .text.NMIException:

00000000 <NMIException>:
NMIException():
C:\cortex\dimmers\src/stm32f10x_it.c:133
* Output         : None
* Return         : None
*******************************************************************************/
void NMIException(void)
{
}
   0:	4770      	bx	lr

Disassembly of section .text.HardFaultException:

00000000 <HardFaultException>:
HardFaultException():
C:\cortex\dimmers\src/stm32f10x_it.c:149
    static vu32 fault;

  /* Go to infinite loop when Hard Fault exception occurs */
  while (1)
  {
    fault = REG_HARD_FAULT & 0b11000000000000000000000000000010;
   0:	4b03      	ldr	r3, [pc, #12]	; (10 <HardFaultException+0x10>)
   2:	681a      	ldr	r2, [r3, #0]
   4:	4b03      	ldr	r3, [pc, #12]	; (14 <HardFaultException+0x14>)
   6:	ea02 0303 	and.w	r3, r2, r3
   a:	4a03      	ldr	r2, [pc, #12]	; (18 <HardFaultException+0x18>)
   c:	6013      	str	r3, [r2, #0]
   e:	e7fc      	b.n	a <HardFaultException+0xa>
  10:	e000ed2c 	.word	0xe000ed2c
  14:	c0000002 	.word	0xc0000002
  18:	00000000 	.word	0x00000000

Disassembly of section .text.MemManageException:

00000000 <MemManageException>:
MemManageException():
C:\cortex\dimmers\src/stm32f10x_it.c:162
* Input          : None
* Output         : None
* Return         : None
*******************************************************************************/
void MemManageException(void)
{
   0:	e7fe      	b.n	0 <MemManageException>

Disassembly of section .text.BusFaultException:

00000000 <BusFaultException>:
BusFaultException():
C:\cortex\dimmers\src/stm32f10x_it.c:177
* Input          : None
* Output         : None
* Return         : None
*******************************************************************************/
void BusFaultException(void)
{
   0:	e7fe      	b.n	0 <BusFaultException>

Disassembly of section .text.UsageFaultException:

00000000 <UsageFaultException>:
UsageFaultException():
C:\cortex\dimmers\src/stm32f10x_it.c:192
* Input          : None
* Output         : None
* Return         : None
*******************************************************************************/
void UsageFaultException(void)
{
   0:	e7fe      	b.n	0 <UsageFaultException>

Disassembly of section .text.DebugMonitor:

00000000 <DebugMonitor>:
DebugMonitor():
C:\cortex\dimmers\src/stm32f10x_it.c:208
* Output         : None
* Return         : None
*******************************************************************************/
void DebugMonitor(void)
{
}
   0:	4770      	bx	lr

Disassembly of section .text.SVCHandler:

00000000 <SVCHandler>:
SVCHandler():
C:\cortex\dimmers\src/stm32f10x_it.c:219
* Output         : None
* Return         : None
*******************************************************************************/
void SVCHandler(void)
{
}
   0:	4770      	bx	lr

Disassembly of section .text.PendSVC:

00000000 <PendSVC>:
PendSVC():
C:\cortex\dimmers\src/stm32f10x_it.c:230
* Output         : None
* Return         : None
*******************************************************************************/
void PendSVC(void)
{
}
   0:	4770      	bx	lr

Disassembly of section .text.SysTickHandler:

00000000 <SysTickHandler>:
SysTickHandler():
C:\cortex\dimmers\src/stm32f10x_it.c:241
* Output         : None
* Return         : None
*******************************************************************************/
void SysTickHandler(void)
{
}
   0:	4770      	bx	lr

Disassembly of section .text.WWDG_IRQHandler:

00000000 <WWDG_IRQHandler>:
WWDG_IRQHandler():
C:\cortex\dimmers\src/stm32f10x_it.c:251
* Input          : None
* Output         : None
* Return         : None
*******************************************************************************/
void WWDG_IRQHandler(void)
{
   0:	b510      	push	{r4, lr}
C:\cortex\dimmers\src/stm32f10x_it.c:253
    /* Update WWDG counter */
    WWDG_SetCounter(WDG_COUNTER_VALUE);
   2:	207f      	movs	r0, #127	; 0x7f
   4:	f7ff fffe 	bl	0 <WWDG_SetCounter>
C:\cortex\dimmers\src/stm32f10x_it.c:256
    /* Clear EWI flag */
    WWDG_ClearFlag();
}
   8:	e8bd 4010 	ldmia.w	sp!, {r4, lr}
C:\cortex\dimmers\src/stm32f10x_it.c:255
void WWDG_IRQHandler(void)
{
    /* Update WWDG counter */
    WWDG_SetCounter(WDG_COUNTER_VALUE);
    /* Clear EWI flag */
    WWDG_ClearFlag();
   c:	f7ff bffe 	b.w	0 <WWDG_ClearFlag>

Disassembly of section .text.PVD_IRQHandler:

00000000 <PVD_IRQHandler>:
PVD_IRQHandler():
C:\cortex\dimmers\src/stm32f10x_it.c:266
* Input          : None
* Output         : None
* Return         : None
*******************************************************************************/
void PVD_IRQHandler(void)
{
   0:	b508      	push	{r3, lr}
C:\cortex\dimmers\src/stm32f10x_it.c:267
    if (PWR_GetFlagStatus( PWR_FLAG_PVDO ) != RESET ) {
   2:	2004      	movs	r0, #4
   4:	f7ff fffe 	bl	0 <PWR_GetFlagStatus>
   8:	b128      	cbz	r0, 16 <PVD_IRQHandler+0x16>
C:\cortex\dimmers\src/stm32f10x_it.c:268
        PWR_ClearFlag(PWR_FLAG_PVDO);
   a:	2004      	movs	r0, #4
   c:	f7ff fffe 	bl	0 <PWR_ClearFlag>
C:\cortex\dimmers\src/stm32f10x_it.c:270
        // reset
        *((volatile unsigned int*)0xE000ED0C) = 0x05FA0004; 
  10:	4a01      	ldr	r2, [pc, #4]	; (18 <PVD_IRQHandler+0x18>)
  12:	4b02      	ldr	r3, [pc, #8]	; (1c <PVD_IRQHandler+0x1c>)
  14:	601a      	str	r2, [r3, #0]
  16:	bd08      	pop	{r3, pc}
  18:	05fa0004 	.word	0x05fa0004
  1c:	e000ed0c 	.word	0xe000ed0c

Disassembly of section .text.TAMPER_IRQHandler:

00000000 <TAMPER_IRQHandler>:
TAMPER_IRQHandler():
C:\cortex\dimmers\src/stm32f10x_it.c:283
* Output         : None
* Return         : None
*******************************************************************************/
void TAMPER_IRQHandler(void)
{
}
   0:	4770      	bx	lr

Disassembly of section .text.RTC_IRQHandler:

00000000 <RTC_IRQHandler>:
RTC_IRQHandler():
C:\cortex\dimmers\src/stm32f10x_it.c:293
* Input          : None
* Output         : None
* Return         : None
*******************************************************************************/
void RTC_IRQHandler(void)
{
   0:	b570      	push	{r4, r5, r6, lr}
C:\cortex\dimmers\src/stm32f10x_it.c:295
    static portBASE_TYPE xFromHigher;
    xFromHigher = pdFALSE;
   2:	4c15      	ldr	r4, [pc, #84]	; (58 <RTC_IRQHandler+0x58>)
   4:	2500      	movs	r5, #0
C:\cortex\dimmers\src/stm32f10x_it.c:297
      
    if (RTC_GetITStatus(RTC_IT_SEC) != RESET)
   6:	2001      	movs	r0, #1
C:\cortex\dimmers\src/stm32f10x_it.c:295
* Return         : None
*******************************************************************************/
void RTC_IRQHandler(void)
{
    static portBASE_TYPE xFromHigher;
    xFromHigher = pdFALSE;
   8:	6065      	str	r5, [r4, #4]
C:\cortex\dimmers\src/stm32f10x_it.c:297
      
    if (RTC_GetITStatus(RTC_IT_SEC) != RESET)
   a:	f7ff fffe 	bl	0 <RTC_GetITStatus>
   e:	2800      	cmp	r0, #0
  10:	d021      	beq.n	56 <RTC_IRQHandler+0x56>
C:\cortex\dimmers\src/stm32f10x_it.c:299
    {
        SecTick++;
  12:	68a3      	ldr	r3, [r4, #8]
C:\cortex\dimmers\src/stm32f10x_it.c:300
        if ( (GpioGetDipState(FACTORY_DEFAULT_SWITCH) != ON ) ){
  14:	f44f 5080 	mov.w	r0, #4096	; 0x1000
C:\cortex\dimmers\src/stm32f10x_it.c:299
    static portBASE_TYPE xFromHigher;
    xFromHigher = pdFALSE;
      
    if (RTC_GetITStatus(RTC_IT_SEC) != RESET)
    {
        SecTick++;
  18:	3301      	adds	r3, #1
  1a:	60a3      	str	r3, [r4, #8]
C:\cortex\dimmers\src/stm32f10x_it.c:300
        if ( (GpioGetDipState(FACTORY_DEFAULT_SWITCH) != ON ) ){
  1c:	f7ff fffe 	bl	0 <GpioGetDipState>
  20:	b1a0      	cbz	r0, 2c <xTaskGetSchedulerState+0x2c>
C:\cortex\dimmers\src/stm32f10x_it.c:301
            if ( xTaskGetSchedulerState() == taskSCHEDULER_RUNNING )
  22:	f7ff fffe 	bl	0 <xTaskGetSchedulerState>
  26:	2801      	cmp	r0, #1
  28:	d106      	bne.n	38 <RTC_IRQHandler+0x38>
C:\cortex\dimmers\src/stm32f10x_it.c:302
                xSemaphoreGiveFromISR ( xRefreshSync , &xFromHigher );
  2a:	4b0c      	ldr	r3, [pc, #48]	; (5c <RTC_IRQHandler+0x5c>)
  2c:	4629      	mov	r1, r5
  2e:	6818      	ldr	r0, [r3, #0]
  30:	1d22      	adds	r2, r4, #4
  32:	462b      	mov	r3, r5
  34:	f7ff fffe 	bl	0 <xQueueGenericSendFromISR>
C:\cortex\dimmers\src/stm32f10x_it.c:304
        
            RTC_ClearITPendingBit(RTC_IT_SEC);
  38:	2001      	movs	r0, #1
  3a:	f7ff fffe 	bl	0 <RTC_ClearITPendingBit>
C:\cortex\dimmers\src/stm32f10x_it.c:306
        
            if ( xFromHigher == pdTRUE ){
  3e:	6863      	ldr	r3, [r4, #4]
  40:	2b01      	cmp	r3, #1
  42:	d108      	bne.n	56 <RTC_IRQHandler+0x56>
C:\cortex\dimmers\src/stm32f10x_it.c:314
        }
        else{
            RTC_ClearITPendingBit(RTC_IT_SEC);
        }
    }
}
  44:	e8bd 4070 	ldmia.w	sp!, {r4, r5, r6, lr}
C:\cortex\dimmers\src/stm32f10x_it.c:307
                xSemaphoreGiveFromISR ( xRefreshSync , &xFromHigher );
        
            RTC_ClearITPendingBit(RTC_IT_SEC);
        
            if ( xFromHigher == pdTRUE ){
                vPortYieldFromISR();
  48:	f7ff bffe 	b.w	0 <vPortYieldFromISR>
C:\cortex\dimmers\src/stm32f10x_it.c:311
            }
        }
        else{
            RTC_ClearITPendingBit(RTC_IT_SEC);
  4c:	2001      	movs	r0, #1
C:\cortex\dimmers\src/stm32f10x_it.c:314
        }
    }
}
  4e:	e8bd 4070 	ldmia.w	sp!, {r4, r5, r6, lr}
C:\cortex\dimmers\src/stm32f10x_it.c:311
            if ( xFromHigher == pdTRUE ){
                vPortYieldFromISR();
            }
        }
        else{
            RTC_ClearITPendingBit(RTC_IT_SEC);
  52:	f7ff bffe 	b.w	0 <RTC_ClearITPendingBit>
  56:	bd70      	pop	{r4, r5, r6, pc}
	...

Disassembly of section .text.FLASH_IRQHandler:

00000000 <FLASH_IRQHandler>:
FLASH_IRQHandler():
C:\cortex\dimmers\src/stm32f10x_it.c:325
* Output         : None
* Return         : None
*******************************************************************************/
void FLASH_IRQHandler(void)
{
}
   0:	4770      	bx	lr

Disassembly of section .text.RCC_IRQHandler:

00000000 <RCC_IRQHandler>:
RCC_IRQHandler():
C:\cortex\dimmers\src/stm32f10x_it.c:336
* Output         : None
* Return         : None
*******************************************************************************/
void RCC_IRQHandler(void)
{
}
   0:	4770      	bx	lr

Disassembly of section .text.EXTI0_IRQHandler:

00000000 <EXTI0_IRQHandler>:
EXTI0_IRQHandler():
C:\cortex\dimmers\src/stm32f10x_it.c:347
* Output         : None
* Return         : None
*******************************************************************************/
void EXTI0_IRQHandler(void)
{
}
   0:	4770      	bx	lr

Disassembly of section .text.EXTI1_IRQHandler:

00000000 <EXTI1_IRQHandler>:
EXTI1_IRQHandler():
C:\cortex\dimmers\src/stm32f10x_it.c:358
* Output         : None
* Return         : None
*******************************************************************************/
void EXTI1_IRQHandler(void)
{
}
   0:	4770      	bx	lr

Disassembly of section .text.EXTI2_IRQHandler:

00000000 <EXTI2_IRQHandler>:
EXTI2_IRQHandler():
C:\cortex\dimmers\src/stm32f10x_it.c:369
* Output         : None
* Return         : None
*******************************************************************************/
void EXTI2_IRQHandler(void)
{
}
   0:	4770      	bx	lr

Disassembly of section .text.EXTI3_IRQHandler:

00000000 <EXTI3_IRQHandler>:
EXTI3_IRQHandler():
C:\cortex\dimmers\src/stm32f10x_it.c:380
* Output         : None
* Return         : None
*******************************************************************************/
void EXTI3_IRQHandler(void)
{
}
   0:	4770      	bx	lr

Disassembly of section .text.EXTI4_IRQHandler:

00000000 <EXTI4_IRQHandler>:
EXTI4_IRQHandler():
C:\cortex\dimmers\src/stm32f10x_it.c:391
* Output         : None
* Return         : None
*******************************************************************************/
void EXTI4_IRQHandler(void)
{
}
   0:	4770      	bx	lr

Disassembly of section .text.DMA1_Channel1_IRQHandler:

00000000 <DMA1_Channel1_IRQHandler>:
DMA1_Channel1_IRQHandler():
C:\cortex\dimmers\src/stm32f10x_it.c:402
* Output         : None
* Return         : None
*******************************************************************************/
void DMA1_Channel1_IRQHandler(void)
{
}
   0:	4770      	bx	lr

Disassembly of section .text.DMA1_Channel2_IRQHandler:

00000000 <DMA1_Channel2_IRQHandler>:
DMA1_Channel2_IRQHandler():
C:\cortex\dimmers\src/stm32f10x_it.c:413
* Output         : None
* Return         : None
*******************************************************************************/
void DMA1_Channel2_IRQHandler(void)
{
}
   0:	4770      	bx	lr

Disassembly of section .text.DMA1_Channel3_IRQHandler:

00000000 <DMA1_Channel3_IRQHandler>:
DMA1_Channel3_IRQHandler():
C:\cortex\dimmers\src/stm32f10x_it.c:424
* Output         : None
* Return         : None
*******************************************************************************/
void DMA1_Channel3_IRQHandler(void)
{
}
   0:	4770      	bx	lr

Disassembly of section .text.DMA1_Channel4_IRQHandler:

00000000 <DMA1_Channel4_IRQHandler>:
DMA1_Channel4_IRQHandler():
C:\cortex\dimmers\src/stm32f10x_it.c:435
* Output         : None
* Return         : None
*******************************************************************************/
void DMA1_Channel4_IRQHandler(void)
{
}
   0:	4770      	bx	lr

Disassembly of section .text.DMA1_Channel5_IRQHandler:

00000000 <DMA1_Channel5_IRQHandler>:
DMA1_Channel5_IRQHandler():
C:\cortex\dimmers\src/stm32f10x_it.c:446
* Output         : None
* Return         : None
*******************************************************************************/
void DMA1_Channel5_IRQHandler(void)
{
}
   0:	4770      	bx	lr

Disassembly of section .text.DMA1_Channel6_IRQHandler:

00000000 <DMA1_Channel6_IRQHandler>:
DMA1_Channel6_IRQHandler():
C:\cortex\dimmers\src/stm32f10x_it.c:457
* Output         : None
* Return         : None
*******************************************************************************/
void DMA1_Channel6_IRQHandler(void)
{
}
   0:	4770      	bx	lr

Disassembly of section .text.DMA1_Channel7_IRQHandler:

00000000 <DMA1_Channel7_IRQHandler>:
DMA1_Channel7_IRQHandler():
C:\cortex\dimmers\src/stm32f10x_it.c:468
* Output         : None
* Return         : None
*******************************************************************************/
void DMA1_Channel7_IRQHandler(void)
{
}
   0:	4770      	bx	lr

Disassembly of section .text.ADC1_2_IRQHandler:

00000000 <ADC1_2_IRQHandler>:
ADC1_2_IRQHandler():
C:\cortex\dimmers\src/stm32f10x_it.c:481
* worload 50µs 
*
*   
*******************************************************************************/
void ADC1_2_IRQHandler(void)
{
   0:	b510      	push	{r4, lr}
C:\cortex\dimmers\src/stm32f10x_it.c:484
  u16 t;
  
  ADC_ClearITPendingBit(ADC1, ADC_IT_EOC);
   2:	481b      	ldr	r0, [pc, #108]	; (70 <ADC1_2_IRQHandler+0x70>)
   4:	f44f 7108 	mov.w	r1, #544	; 0x220
   8:	f7ff fffe 	bl	0 <ADC_ClearITPendingBit>
C:\cortex\dimmers\src/stm32f10x_it.c:486

  t = ((1.43 - ((3.3 / 4096 )* TempSensor))/0.0043) + 25;
   c:	4b19      	ldr	r3, [pc, #100]	; (74 <ADC1_2_IRQHandler+0x74>)
   e:	8818      	ldrh	r0, [r3, #0]
  10:	f7ff fffe 	bl	0 <__aeabi_i2d>
  14:	a310      	add	r3, pc, #64	; (adr r3, 58 <ADC1_2_IRQHandler+0x58>)
  16:	e9d3 2300 	ldrd	r2, r3, [r3]
  1a:	f7ff fffe 	bl	0 <__aeabi_dmul>
  1e:	4602      	mov	r2, r0
  20:	460b      	mov	r3, r1
  22:	a10f      	add	r1, pc, #60	; (adr r1, 60 <ADC1_2_IRQHandler+0x60>)
  24:	e9d1 0100 	ldrd	r0, r1, [r1]
  28:	f7ff fffe 	bl	0 <__aeabi_dsub>
  2c:	a30e      	add	r3, pc, #56	; (adr r3, 68 <ADC1_2_IRQHandler+0x68>)
  2e:	e9d3 2300 	ldrd	r2, r3, [r3]
  32:	f7ff fffe 	bl	0 <__aeabi_ddiv>
  36:	2200      	movs	r2, #0
  38:	4b0f      	ldr	r3, [pc, #60]	; (78 <ADC1_2_IRQHandler+0x78>)
  3a:	f7ff fffe 	bl	0 <__aeabi_dadd>
  3e:	f7ff fffe 	bl	0 <__aeabi_d2uiz>
  42:	b284      	uxth	r4, r0
C:\cortex\dimmers\src/stm32f10x_it.c:488

  BkpUnlock ();
  44:	f7ff fffe 	bl	0 <BkpUnlock>
C:\cortex\dimmers\src/stm32f10x_it.c:489
  BKP_WriteBackupRegister( POS_VALUE_TEMP_SENSOR, t);
  48:	20a8      	movs	r0, #168	; 0xa8
  4a:	4621      	mov	r1, r4
  4c:	f7ff fffe 	bl	0 <BKP_WriteBackupRegister>
C:\cortex\dimmers\src/stm32f10x_it.c:492
  BkpLock();

}
  50:	e8bd 4010 	ldmia.w	sp!, {r4, lr}
C:\cortex\dimmers\src/stm32f10x_it.c:490

  t = ((1.43 - ((3.3 / 4096 )* TempSensor))/0.0043) + 25;

  BkpUnlock ();
  BKP_WriteBackupRegister( POS_VALUE_TEMP_SENSOR, t);
  BkpLock();
  54:	f7ff bffe 	b.w	0 <BkpLock>
  58:	66666666 	.word	0x66666666
  5c:	3f4a6666 	.word	0x3f4a6666
  60:	ae147ae1 	.word	0xae147ae1
  64:	3ff6e147 	.word	0x3ff6e147
  68:	75f6fd22 	.word	0x75f6fd22
  6c:	3f719ce0 	.word	0x3f719ce0
  70:	40012400 	.word	0x40012400
  74:	00000000 	.word	0x00000000
  78:	40390000 	.word	0x40390000
  7c:	f3af 8000 	nop.w

Disassembly of section .text.USB_HP_CAN_TX_IRQHandler:

00000000 <USB_HP_CAN_TX_IRQHandler>:
USB_HP_CAN_TX_IRQHandler():
C:\cortex\dimmers\src/stm32f10x_it.c:504
* Output         : None
* Return         : None
*******************************************************************************/
void USB_HP_CAN_TX_IRQHandler(void)
{
}
   0:	4770      	bx	lr

Disassembly of section .text.USB_LP_CAN_RX0_IRQHandler:

00000000 <USB_LP_CAN_RX0_IRQHandler>:
USB_LP_CAN_RX0_IRQHandler():
C:\cortex\dimmers\src/stm32f10x_it.c:516
* Output         : None
* Return         : None
*******************************************************************************/
void USB_LP_CAN_RX0_IRQHandler(void)
{
}
   0:	4770      	bx	lr

Disassembly of section .text.CAN_RX1_IRQHandler:

00000000 <CAN_RX1_IRQHandler>:
CAN_RX1_IRQHandler():
C:\cortex\dimmers\src/stm32f10x_it.c:527
* Output         : None
* Return         : None
*******************************************************************************/
void CAN_RX1_IRQHandler(void)
{
}
   0:	4770      	bx	lr

Disassembly of section .text.CAN_SCE_IRQHandler:

00000000 <CAN_SCE_IRQHandler>:
CAN_SCE_IRQHandler():
C:\cortex\dimmers\src/stm32f10x_it.c:538
* Output         : None
* Return         : None
*******************************************************************************/
void CAN_SCE_IRQHandler(void)
{
}
   0:	4770      	bx	lr

Disassembly of section .text.EXTI9_5_IRQHandler:

00000000 <EXTI9_5_IRQHandler>:
EXTI9_5_IRQHandler():
C:\cortex\dimmers\src/stm32f10x_it.c:548
* Input          : None
* Output         : None
* Return         : None
*******************************************************************************/
void EXTI9_5_IRQHandler(void)
{
   0:	b570      	push	{r4, r5, r6, lr}
C:\cortex\dimmers\src/stm32f10x_it.c:550
    static portBASE_TYPE xFromHigher;
    xFromHigher = pdFALSE;
   2:	4c39      	ldr	r4, [pc, #228]	; (e8 <EXTI9_5_IRQHandler+0xe8>)
   4:	2500      	movs	r5, #0
C:\cortex\dimmers\src/stm32f10x_it.c:552
    
    if(EXTI_GetITStatus(EXTI_BUTTON_1) != RESET)
   6:	2040      	movs	r0, #64	; 0x40
C:\cortex\dimmers\src/stm32f10x_it.c:550
* Return         : None
*******************************************************************************/
void EXTI9_5_IRQHandler(void)
{
    static portBASE_TYPE xFromHigher;
    xFromHigher = pdFALSE;
   8:	60e5      	str	r5, [r4, #12]
C:\cortex\dimmers\src/stm32f10x_it.c:552
    
    if(EXTI_GetITStatus(EXTI_BUTTON_1) != RESET)
   a:	f7ff fffe 	bl	0 <EXTI_GetITStatus>
   e:	b1b0      	cbz	r0, 30 <xTaskGetSchedulerState+0x30>
C:\cortex\dimmers\src/stm32f10x_it.c:554
    {
        if ( xTaskGetSchedulerState() == taskSCHEDULER_RUNNING )
  10:	f7ff fffe 	bl	0 <xTaskGetSchedulerState>
  14:	2801      	cmp	r0, #1
  16:	d107      	bne.n	28 <EXTI9_5_IRQHandler+0x28>
C:\cortex\dimmers\src/stm32f10x_it.c:555
            xSemaphoreGiveFromISR ( xSemaphoreButtonArrayHandle[0] , &xFromHigher );
  18:	4b34      	ldr	r3, [pc, #208]	; (ec <EXTI9_5_IRQHandler+0xec>)
  1a:	4629      	mov	r1, r5
  1c:	6818      	ldr	r0, [r3, #0]
  1e:	f104 020c 	add.w	r2, r4, #12
  22:	462b      	mov	r3, r5
  24:	f7ff fffe 	bl	0 <xQueueGenericSendFromISR>
C:\cortex\dimmers\src/stm32f10x_it.c:557

        if ( xFromHigher == pdTRUE ){
  28:	68e3      	ldr	r3, [r4, #12]
  2a:	2b01      	cmp	r3, #1
  2c:	d104      	bne.n	38 <EXTI9_5_IRQHandler+0x38>
C:\cortex\dimmers\src/stm32f10x_it.c:558
            vPortYieldFromISR();
  2e:	f7ff fffe 	bl	0 <vPortYieldFromISR>
C:\cortex\dimmers\src/stm32f10x_it.c:559
            xFromHigher = pdFALSE;
  32:	4b2d      	ldr	r3, [pc, #180]	; (e8 <EXTI9_5_IRQHandler+0xe8>)
  34:	2200      	movs	r2, #0
  36:	60da      	str	r2, [r3, #12]
C:\cortex\dimmers\src/stm32f10x_it.c:562
        }

        EXTI_ClearITPendingBit(EXTI_Line6);
  38:	2040      	movs	r0, #64	; 0x40
  3a:	f7ff fffe 	bl	0 <EXTI_ClearITPendingBit>
C:\cortex\dimmers\src/stm32f10x_it.c:564
    }
    if(EXTI_GetITStatus(EXTI_BUTTON_2) != RESET)
  3e:	2080      	movs	r0, #128	; 0x80
  40:	f7ff fffe 	bl	0 <EXTI_GetITStatus>
  44:	b1a8      	cbz	r0, 2e <xTaskGetSchedulerState+0x2e>
C:\cortex\dimmers\src/stm32f10x_it.c:566
    {
        if ( xTaskGetSchedulerState() == taskSCHEDULER_RUNNING )
  46:	f7ff fffe 	bl	0 <xTaskGetSchedulerState>
  4a:	2801      	cmp	r0, #1
  4c:	d106      	bne.n	5c <EXTI9_5_IRQHandler+0x5c>
C:\cortex\dimmers\src/stm32f10x_it.c:567
            xSemaphoreGiveFromISR ( xSemaphoreButtonArrayHandle[1] , &xFromHigher );
  4e:	4b27      	ldr	r3, [pc, #156]	; (ec <EXTI9_5_IRQHandler+0xec>)
  50:	2100      	movs	r1, #0
  52:	6858      	ldr	r0, [r3, #4]
  54:	4a26      	ldr	r2, [pc, #152]	; (f0 <EXTI9_5_IRQHandler+0xf0>)
  56:	460b      	mov	r3, r1
  58:	f7ff fffe 	bl	0 <xQueueGenericSendFromISR>
C:\cortex\dimmers\src/stm32f10x_it.c:569
    
        if ( xFromHigher == pdTRUE ){
  5c:	68e3      	ldr	r3, [r4, #12]
  5e:	2b01      	cmp	r3, #1
  60:	d104      	bne.n	6c <EXTI9_5_IRQHandler+0x6c>
C:\cortex\dimmers\src/stm32f10x_it.c:570
            vPortYieldFromISR();
  62:	f7ff fffe 	bl	0 <vPortYieldFromISR>
C:\cortex\dimmers\src/stm32f10x_it.c:571
            xFromHigher = pdFALSE;
  66:	4b20      	ldr	r3, [pc, #128]	; (e8 <EXTI9_5_IRQHandler+0xe8>)
  68:	2200      	movs	r2, #0
  6a:	60da      	str	r2, [r3, #12]
C:\cortex\dimmers\src/stm32f10x_it.c:574
        }

        EXTI_ClearITPendingBit(EXTI_Line7);
  6c:	2080      	movs	r0, #128	; 0x80
  6e:	f7ff fffe 	bl	0 <EXTI_ClearITPendingBit>
C:\cortex\dimmers\src/stm32f10x_it.c:576
    }
    if(EXTI_GetITStatus(EXTI_BUTTON_3) != RESET)
  72:	f44f 7080 	mov.w	r0, #256	; 0x100
  76:	f7ff fffe 	bl	0 <EXTI_GetITStatus>
  7a:	b1b0      	cbz	r0, 30 <xTaskGetSchedulerState+0x30>
C:\cortex\dimmers\src/stm32f10x_it.c:579
    {
    
        if ( xTaskGetSchedulerState() == taskSCHEDULER_RUNNING )
  7c:	f7ff fffe 	bl	0 <xTaskGetSchedulerState>
  80:	2801      	cmp	r0, #1
  82:	d106      	bne.n	92 <EXTI9_5_IRQHandler+0x92>
C:\cortex\dimmers\src/stm32f10x_it.c:580
           xSemaphoreGiveFromISR ( xSemaphoreButtonArrayHandle[2] , &xFromHigher );
  84:	4b19      	ldr	r3, [pc, #100]	; (ec <EXTI9_5_IRQHandler+0xec>)
  86:	2100      	movs	r1, #0
  88:	6898      	ldr	r0, [r3, #8]
  8a:	4a19      	ldr	r2, [pc, #100]	; (f0 <EXTI9_5_IRQHandler+0xf0>)
  8c:	460b      	mov	r3, r1
  8e:	f7ff fffe 	bl	0 <xQueueGenericSendFromISR>
C:\cortex\dimmers\src/stm32f10x_it.c:582

        if ( xFromHigher == pdTRUE ){
  92:	68e3      	ldr	r3, [r4, #12]
  94:	2b01      	cmp	r3, #1
  96:	d104      	bne.n	a2 <EXTI9_5_IRQHandler+0xa2>
C:\cortex\dimmers\src/stm32f10x_it.c:583
            vPortYieldFromISR();
  98:	f7ff fffe 	bl	0 <vPortYieldFromISR>
C:\cortex\dimmers\src/stm32f10x_it.c:584
            xFromHigher = pdFALSE;
  9c:	4b12      	ldr	r3, [pc, #72]	; (e8 <EXTI9_5_IRQHandler+0xe8>)
  9e:	2200      	movs	r2, #0
  a0:	60da      	str	r2, [r3, #12]
C:\cortex\dimmers\src/stm32f10x_it.c:587
        }
    
        EXTI_ClearITPendingBit(EXTI_Line8);
  a2:	f44f 7080 	mov.w	r0, #256	; 0x100
  a6:	f7ff fffe 	bl	0 <EXTI_ClearITPendingBit>
C:\cortex\dimmers\src/stm32f10x_it.c:589
    }
    if(EXTI_GetITStatus(EXTI_BUTTON_4) != RESET)
  aa:	f44f 7000 	mov.w	r0, #512	; 0x200
  ae:	f7ff fffe 	bl	0 <EXTI_GetITStatus>
  b2:	b1c0      	cbz	r0, 34 <xTaskGetSchedulerState+0x34>
C:\cortex\dimmers\src/stm32f10x_it.c:591
    {
        if ( xTaskGetSchedulerState() == taskSCHEDULER_RUNNING )
  b4:	f7ff fffe 	bl	0 <xTaskGetSchedulerState>
  b8:	2801      	cmp	r0, #1
  ba:	d106      	bne.n	ca <EXTI9_5_IRQHandler+0xca>
C:\cortex\dimmers\src/stm32f10x_it.c:592
            xSemaphoreGiveFromISR ( xSemaphoreButtonArrayHandle[3] , &xFromHigher );
  bc:	4b0b      	ldr	r3, [pc, #44]	; (ec <EXTI9_5_IRQHandler+0xec>)
  be:	2100      	movs	r1, #0
  c0:	68d8      	ldr	r0, [r3, #12]
  c2:	4a0b      	ldr	r2, [pc, #44]	; (f0 <EXTI9_5_IRQHandler+0xf0>)
  c4:	460b      	mov	r3, r1
  c6:	f7ff fffe 	bl	0 <xQueueGenericSendFromISR>
C:\cortex\dimmers\src/stm32f10x_it.c:594
    
        if ( xFromHigher == pdTRUE ){
  ca:	68e3      	ldr	r3, [r4, #12]
  cc:	2b01      	cmp	r3, #1
  ce:	d104      	bne.n	da <EXTI9_5_IRQHandler+0xda>
C:\cortex\dimmers\src/stm32f10x_it.c:595
            vPortYieldFromISR();
  d0:	f7ff fffe 	bl	0 <vPortYieldFromISR>
C:\cortex\dimmers\src/stm32f10x_it.c:596
            xFromHigher = pdFALSE;
  d4:	4b04      	ldr	r3, [pc, #16]	; (e8 <EXTI9_5_IRQHandler+0xe8>)
  d6:	2200      	movs	r2, #0
  d8:	60da      	str	r2, [r3, #12]
C:\cortex\dimmers\src/stm32f10x_it.c:599
        }

        EXTI_ClearITPendingBit(EXTI_Line9);
  da:	f44f 7000 	mov.w	r0, #512	; 0x200
C:\cortex\dimmers\src/stm32f10x_it.c:602
    }
  
}
  de:	e8bd 4070 	ldmia.w	sp!, {r4, r5, r6, lr}
C:\cortex\dimmers\src/stm32f10x_it.c:599
        if ( xFromHigher == pdTRUE ){
            vPortYieldFromISR();
            xFromHigher = pdFALSE;
        }

        EXTI_ClearITPendingBit(EXTI_Line9);
  e2:	f7ff bffe 	b.w	0 <EXTI_ClearITPendingBit>
  e6:	bd70      	pop	{r4, r5, r6, pc}
	...
  f0:	0000000c 	.word	0x0000000c

Disassembly of section .text.TIM1_BRK_IRQHandler:

00000000 <TIM1_BRK_IRQHandler>:
TIM1_BRK_IRQHandler():
C:\cortex\dimmers\src/stm32f10x_it.c:613
* Output         : None
* Return         : None
*******************************************************************************/
void TIM1_BRK_IRQHandler(void)
{
}
   0:	4770      	bx	lr

Disassembly of section .text.TIM1_UP_IRQHandler:

00000000 <TIM1_UP_IRQHandler>:
TIM1_UP_IRQHandler():
C:\cortex\dimmers\src/stm32f10x_it.c:625
* Output         : None
* Return         : None
*******************************************************************************/
void TIM1_UP_IRQHandler(void)
{
    TIM_ClearITPendingBit(TIM1, TIM_IT_Update );
   0:	2101      	movs	r1, #1
C:\cortex\dimmers\src/stm32f10x_it.c:624
* Input          : None
* Output         : None
* Return         : None
*******************************************************************************/
void TIM1_UP_IRQHandler(void)
{
   2:	b510      	push	{r4, lr}
C:\cortex\dimmers\src/stm32f10x_it.c:625
    TIM_ClearITPendingBit(TIM1, TIM_IT_Update );
   4:	4804      	ldr	r0, [pc, #16]	; (18 <TIM1_UP_IRQHandler+0x18>)
   6:	f7ff fffe 	bl	0 <TIM_ClearITPendingBit>
C:\cortex\dimmers\src/stm32f10x_it.c:626
    ADC_SoftwareStartConvCmd(ADC3, ENABLE);
   a:	4804      	ldr	r0, [pc, #16]	; (1c <TIM1_UP_IRQHandler+0x1c>)
   c:	2101      	movs	r1, #1
C:\cortex\dimmers\src/stm32f10x_it.c:627
}
   e:	e8bd 4010 	ldmia.w	sp!, {r4, lr}
C:\cortex\dimmers\src/stm32f10x_it.c:626
* Return         : None
*******************************************************************************/
void TIM1_UP_IRQHandler(void)
{
    TIM_ClearITPendingBit(TIM1, TIM_IT_Update );
    ADC_SoftwareStartConvCmd(ADC3, ENABLE);
  12:	f7ff bffe 	b.w	0 <ADC_SoftwareStartConvCmd>
  16:	bf00      	nop
  18:	40012c00 	.word	0x40012c00
  1c:	40013c00 	.word	0x40013c00

Disassembly of section .text.TIM1_TRG_COM_IRQHandler:

00000000 <TIM1_TRG_COM_IRQHandler>:
TIM1_TRG_COM_IRQHandler():
C:\cortex\dimmers\src/stm32f10x_it.c:639
* Output         : None
* Return         : None
*******************************************************************************/
void TIM1_TRG_COM_IRQHandler(void)
{
}
   0:	4770      	bx	lr

Disassembly of section .text.TIM1_CC_IRQHandler:

00000000 <TIM1_CC_IRQHandler>:
TIM1_CC_IRQHandler():
C:\cortex\dimmers\src/stm32f10x_it.c:650
* Output         : None
* Return         : None
*******************************************************************************/
void TIM1_CC_IRQHandler(void)
{
}
   0:	4770      	bx	lr

Disassembly of section .text.TIM2_IRQHandler:

00000000 <TIM2_IRQHandler>:
TIM2_IRQHandler():
C:\cortex\dimmers\src/stm32f10x_it.c:662
* Return         : None
*
*                   1-2µs handle time / compare
*******************************************************************************/
void TIM2_IRQHandler(void)
{
   0:	b510      	push	{r4, lr}
C:\cortex\dimmers\src/stm32f10x_it.c:665
    static bool forceHold1, forceHold2 = FALSE;

    if (TIM_GetITStatus(TIM2, TIM_IT_CC1) != RESET)
   2:	f04f 4080 	mov.w	r0, #1073741824	; 0x40000000
   6:	2102      	movs	r1, #2
   8:	f7ff fffe 	bl	0 <TIM_GetITStatus>
   c:	b1a0      	cbz	r0, 38 <TIM2_IRQHandler+0x38>
C:\cortex\dimmers\src/stm32f10x_it.c:667
    {
        TIM_ClearITPendingBit(TIM2, TIM_IT_CC1);
   e:	2102      	movs	r1, #2
  10:	f04f 4080 	mov.w	r0, #1073741824	; 0x40000000
  14:	f7ff fffe 	bl	0 <TIM_ClearITPendingBit>
C:\cortex\dimmers\src/stm32f10x_it.c:668
        if ( CHECK_NOT_IN_ONOFF_MODE(LIGHT1_INDEX) ){
  18:	4b31      	ldr	r3, [pc, #196]	; (e0 <TIM2_IRQHandler+0xe0>)
  1a:	f242 7210 	movw	r2, #10000	; 0x2710
  1e:	881b      	ldrh	r3, [r3, #0]
  20:	4293      	cmp	r3, r2
  22:	d05b      	beq.n	dc <TIM2_IRQHandler+0xdc>
  24:	2b00      	cmp	r3, #0
  26:	d059      	beq.n	dc <TIM2_IRQHandler+0xdc>
C:\cortex\dimmers\src/stm32f10x_it.c:669
            GPIO_SetBits(GPIOC, PIN_LIGHT_1);
  28:	482e      	ldr	r0, [pc, #184]	; (e4 <TIM2_IRQHandler+0xe4>)
  2a:	2101      	movs	r1, #1
  2c:	f7ff fffe 	bl	0 <GPIO_SetBits>
C:\cortex\dimmers\src/stm32f10x_it.c:670
            forceHold1 = TRUE;
  30:	4b2d      	ldr	r3, [pc, #180]	; (e8 <TIM2_IRQHandler+0xe8>)
  32:	2201      	movs	r2, #1
  34:	741a      	strb	r2, [r3, #16]
  36:	bd10      	pop	{r4, pc}
C:\cortex\dimmers\src/stm32f10x_it.c:673
        }
    }
    else if (TIM_GetITStatus(TIM2, TIM_IT_CC2) != RESET)
  38:	f04f 4080 	mov.w	r0, #1073741824	; 0x40000000
  3c:	2104      	movs	r1, #4
  3e:	f7ff fffe 	bl	0 <TIM_GetITStatus>
  42:	b1b0      	cbz	r0, 72 <TIM2_IRQHandler+0x72>
C:\cortex\dimmers\src/stm32f10x_it.c:675
    {
        TIM_ClearITPendingBit(TIM2, TIM_IT_CC2);
  44:	2104      	movs	r1, #4
  46:	f04f 4080 	mov.w	r0, #1073741824	; 0x40000000
  4a:	f7ff fffe 	bl	0 <TIM_ClearITPendingBit>
C:\cortex\dimmers\src/stm32f10x_it.c:676
        if ( CHECK_NOT_IN_ONOFF_MODE(LIGHT1_INDEX) || forceHold1 ){
  4e:	4b24      	ldr	r3, [pc, #144]	; (e0 <TIM2_IRQHandler+0xe0>)
  50:	f242 7210 	movw	r2, #10000	; 0x2710
  54:	881b      	ldrh	r3, [r3, #0]
  56:	4c24      	ldr	r4, [pc, #144]	; (e8 <TIM2_IRQHandler+0xe8>)
  58:	4293      	cmp	r3, r2
  5a:	d000      	beq.n	5e <TIM2_IRQHandler+0x5e>
  5c:	b913      	cbnz	r3, 64 <TIM2_IRQHandler+0x64>
  5e:	7c23      	ldrb	r3, [r4, #16]
  60:	2b00      	cmp	r3, #0
  62:	d03b      	beq.n	dc <TIM2_IRQHandler+0xdc>
C:\cortex\dimmers\src/stm32f10x_it.c:677
            GPIO_ResetBits(GPIOC, PIN_LIGHT_1);
  64:	481f      	ldr	r0, [pc, #124]	; (e4 <TIM2_IRQHandler+0xe4>)
  66:	2101      	movs	r1, #1
  68:	f7ff fffe 	bl	0 <GPIO_ResetBits>
C:\cortex\dimmers\src/stm32f10x_it.c:678
            forceHold1 = FALSE;
  6c:	2300      	movs	r3, #0
  6e:	7423      	strb	r3, [r4, #16]
  70:	bd10      	pop	{r4, pc}
C:\cortex\dimmers\src/stm32f10x_it.c:681
        }
    }
    else if (TIM_GetITStatus(TIM2, TIM_IT_CC3) != RESET)
  72:	f04f 4080 	mov.w	r0, #1073741824	; 0x40000000
  76:	2108      	movs	r1, #8
  78:	f7ff fffe 	bl	0 <TIM_GetITStatus>
  7c:	b198      	cbz	r0, a6 <TIM2_IRQHandler+0xa6>
C:\cortex\dimmers\src/stm32f10x_it.c:683
    {
        TIM_ClearITPendingBit(TIM2, TIM_IT_CC3);
  7e:	2108      	movs	r1, #8
  80:	f04f 4080 	mov.w	r0, #1073741824	; 0x40000000
  84:	f7ff fffe 	bl	0 <TIM_ClearITPendingBit>
C:\cortex\dimmers\src/stm32f10x_it.c:684
        if ( CHECK_NOT_IN_ONOFF_MODE(LIGHT2_INDEX) ){
  88:	4b15      	ldr	r3, [pc, #84]	; (e0 <TIM2_IRQHandler+0xe0>)
  8a:	f242 7210 	movw	r2, #10000	; 0x2710
  8e:	8b9b      	ldrh	r3, [r3, #28]
  90:	4293      	cmp	r3, r2
  92:	d023      	beq.n	dc <TIM2_IRQHandler+0xdc>
  94:	b313      	cbz	r3, dc <TIM2_IRQHandler+0xdc>
C:\cortex\dimmers\src/stm32f10x_it.c:685
            GPIO_SetBits(GPIOC, PIN_LIGHT_2);
  96:	4813      	ldr	r0, [pc, #76]	; (e4 <TIM2_IRQHandler+0xe4>)
  98:	2102      	movs	r1, #2
  9a:	f7ff fffe 	bl	0 <GPIO_SetBits>
C:\cortex\dimmers\src/stm32f10x_it.c:686
            forceHold2 = TRUE;
  9e:	4b12      	ldr	r3, [pc, #72]	; (e8 <TIM2_IRQHandler+0xe8>)
  a0:	2201      	movs	r2, #1
  a2:	745a      	strb	r2, [r3, #17]
  a4:	bd10      	pop	{r4, pc}
C:\cortex\dimmers\src/stm32f10x_it.c:689
        }
    }
    else if (TIM_GetITStatus(TIM2, TIM_IT_CC4) != RESET)
  a6:	f04f 4080 	mov.w	r0, #1073741824	; 0x40000000
  aa:	2110      	movs	r1, #16
  ac:	f7ff fffe 	bl	0 <TIM_GetITStatus>
  b0:	b1a0      	cbz	r0, dc <TIM2_IRQHandler+0xdc>
C:\cortex\dimmers\src/stm32f10x_it.c:691
    {
        TIM_ClearITPendingBit(TIM2, TIM_IT_CC4);
  b2:	2110      	movs	r1, #16
  b4:	f04f 4080 	mov.w	r0, #1073741824	; 0x40000000
  b8:	f7ff fffe 	bl	0 <TIM_ClearITPendingBit>
C:\cortex\dimmers\src/stm32f10x_it.c:692
        if ( CHECK_NOT_IN_ONOFF_MODE(LIGHT2_INDEX) || forceHold2 ){
  bc:	4b08      	ldr	r3, [pc, #32]	; (e0 <TIM2_IRQHandler+0xe0>)
  be:	f242 7210 	movw	r2, #10000	; 0x2710
  c2:	8b9b      	ldrh	r3, [r3, #28]
  c4:	4c08      	ldr	r4, [pc, #32]	; (e8 <TIM2_IRQHandler+0xe8>)
  c6:	4293      	cmp	r3, r2
  c8:	d000      	beq.n	cc <TIM2_IRQHandler+0xcc>
  ca:	b90b      	cbnz	r3, d0 <TIM2_IRQHandler+0xd0>
  cc:	7c63      	ldrb	r3, [r4, #17]
  ce:	b12b      	cbz	r3, dc <TIM2_IRQHandler+0xdc>
C:\cortex\dimmers\src/stm32f10x_it.c:693
            GPIO_ResetBits(GPIOC, PIN_LIGHT_2);
  d0:	4804      	ldr	r0, [pc, #16]	; (e4 <TIM2_IRQHandler+0xe4>)
  d2:	2102      	movs	r1, #2
  d4:	f7ff fffe 	bl	0 <GPIO_ResetBits>
C:\cortex\dimmers\src/stm32f10x_it.c:694
            forceHold2 = FALSE;
  d8:	2300      	movs	r3, #0
  da:	7463      	strb	r3, [r4, #17]
  dc:	bd10      	pop	{r4, pc}
  de:	bf00      	nop
  e0:	00000000 	.word	0x00000000
  e4:	40011000 	.word	0x40011000
  e8:	00000000 	.word	0x00000000

Disassembly of section .text.TIM3_IRQHandler:

00000000 <TIM3_IRQHandler>:
TIM3_IRQHandler():
C:\cortex\dimmers\src/stm32f10x_it.c:707
* Input          : None
* Output         : None
* Return         : None
*******************************************************************************/
void TIM3_IRQHandler(void)
{
   0:	4834b510 	.word	0x4834b510
C:\cortex\dimmers\src/stm32f10x_it.c:710
    static bool forceHold3, forceHold4 = FALSE;

    if (TIM_GetITStatus(TIM3, TIM_IT_CC1) != RESET)
   4:	2102      	movs	r1, #2
   6:	f7ff fffe 	bl	0 <TIM_GetITStatus>
   a:	b198      	cbz	r0, 34 <TIM3_IRQHandler+0x34>
C:\cortex\dimmers\src/stm32f10x_it.c:712
    {
        TIM_ClearITPendingBit(TIM3, TIM_IT_CC1);
   c:	2102      	movs	r1, #2
   e:	4831      	ldr	r0, [pc, #196]	; (d4 <TIM3_IRQHandler+0xd4>)
  10:	f7ff fffe 	bl	0 <TIM_ClearITPendingBit>
C:\cortex\dimmers\src/stm32f10x_it.c:713
        if ( CHECK_NOT_IN_ONOFF_MODE(LIGHT3_INDEX)){
  14:	4b30      	ldr	r3, [pc, #192]	; (d8 <TIM3_IRQHandler+0xd8>)
  16:	f242 7210 	movw	r2, #10000	; 0x2710
  1a:	8f1b      	ldrh	r3, [r3, #56]	; 0x38
  1c:	4293      	cmp	r3, r2
  1e:	d057      	beq.n	d0 <TIM3_IRQHandler+0xd0>
  20:	2b00      	cmp	r3, #0
  22:	d055      	beq.n	d0 <TIM3_IRQHandler+0xd0>
C:\cortex\dimmers\src/stm32f10x_it.c:714
            GPIO_SetBits(GPIOC, PIN_LIGHT_3);
  24:	482d      	ldr	r0, [pc, #180]	; (dc <TIM3_IRQHandler+0xdc>)
  26:	2104      	movs	r1, #4
  28:	f7ff fffe 	bl	0 <GPIO_SetBits>
C:\cortex\dimmers\src/stm32f10x_it.c:715
            forceHold3 = TRUE;
  2c:	4b2c      	ldr	r3, [pc, #176]	; (e0 <TIM3_IRQHandler+0xe0>)
  2e:	2201      	movs	r2, #1
  30:	749a      	strb	r2, [r3, #18]
  32:	bd10      	pop	{r4, pc}
C:\cortex\dimmers\src/stm32f10x_it.c:718
        }
    }
    else if (TIM_GetITStatus(TIM3, TIM_IT_CC2) != RESET)
  34:	4827      	ldr	r0, [pc, #156]	; (d4 <TIM3_IRQHandler+0xd4>)
  36:	2104      	movs	r1, #4
  38:	f7ff fffe 	bl	0 <TIM_GetITStatus>
  3c:	b1a8      	cbz	r0, 6a <TIM3_IRQHandler+0x6a>
C:\cortex\dimmers\src/stm32f10x_it.c:720
    {
        TIM_ClearITPendingBit(TIM3, TIM_IT_CC2);
  3e:	2104      	movs	r1, #4
  40:	4824      	ldr	r0, [pc, #144]	; (d4 <TIM3_IRQHandler+0xd4>)
  42:	f7ff fffe 	bl	0 <TIM_ClearITPendingBit>
C:\cortex\dimmers\src/stm32f10x_it.c:721
        if ( CHECK_NOT_IN_ONOFF_MODE(LIGHT3_INDEX) || forceHold3 ){
  46:	4b24      	ldr	r3, [pc, #144]	; (d8 <TIM3_IRQHandler+0xd8>)
  48:	f242 7210 	movw	r2, #10000	; 0x2710
  4c:	8f1b      	ldrh	r3, [r3, #56]	; 0x38
  4e:	4c24      	ldr	r4, [pc, #144]	; (e0 <TIM3_IRQHandler+0xe0>)
  50:	4293      	cmp	r3, r2
  52:	d000      	beq.n	56 <TIM3_IRQHandler+0x56>
  54:	b913      	cbnz	r3, 5c <TIM3_IRQHandler+0x5c>
  56:	7ca3      	ldrb	r3, [r4, #18]
  58:	2b00      	cmp	r3, #0
  5a:	d039      	beq.n	d0 <TIM3_IRQHandler+0xd0>
C:\cortex\dimmers\src/stm32f10x_it.c:722
            GPIO_ResetBits(GPIOC, PIN_LIGHT_3);
  5c:	481f      	ldr	r0, [pc, #124]	; (dc <TIM3_IRQHandler+0xdc>)
  5e:	2104      	movs	r1, #4
  60:	f7ff fffe 	bl	0 <GPIO_ResetBits>
C:\cortex\dimmers\src/stm32f10x_it.c:723
            forceHold3 = FALSE;
  64:	2300      	movs	r3, #0
  66:	74a3      	strb	r3, [r4, #18]
  68:	bd10      	pop	{r4, pc}
C:\cortex\dimmers\src/stm32f10x_it.c:726
        }
    }
    else if (TIM_GetITStatus(TIM3, TIM_IT_CC3) != RESET)
  6a:	481a      	ldr	r0, [pc, #104]	; (d4 <TIM3_IRQHandler+0xd4>)
  6c:	2108      	movs	r1, #8
  6e:	f7ff fffe 	bl	0 <TIM_GetITStatus>
  72:	b198      	cbz	r0, 9c <TIM3_IRQHandler+0x9c>
C:\cortex\dimmers\src/stm32f10x_it.c:728
    {
        TIM_ClearITPendingBit(TIM3, TIM_IT_CC3);
  74:	2108      	movs	r1, #8
  76:	4817      	ldr	r0, [pc, #92]	; (d4 <TIM3_IRQHandler+0xd4>)
  78:	f7ff fffe 	bl	0 <TIM_ClearITPendingBit>
C:\cortex\dimmers\src/stm32f10x_it.c:729
        if ( CHECK_NOT_IN_ONOFF_MODE(LIGHT4_INDEX) ){
  7c:	4b16      	ldr	r3, [pc, #88]	; (d8 <TIM3_IRQHandler+0xd8>)
  7e:	f242 7210 	movw	r2, #10000	; 0x2710
  82:	f8b3 3054 	ldrh.w	r3, [r3, #84]	; 0x54
  86:	4293      	cmp	r3, r2
  88:	d022      	beq.n	d0 <TIM3_IRQHandler+0xd0>
  8a:	b30b      	cbz	r3, d0 <TIM3_IRQHandler+0xd0>
C:\cortex\dimmers\src/stm32f10x_it.c:730
            GPIO_SetBits(GPIOC, PIN_LIGHT_4);
  8c:	4813      	ldr	r0, [pc, #76]	; (dc <TIM3_IRQHandler+0xdc>)
  8e:	2108      	movs	r1, #8
  90:	f7ff fffe 	bl	0 <GPIO_SetBits>
C:\cortex\dimmers\src/stm32f10x_it.c:731
            forceHold4 = TRUE;
  94:	4b12      	ldr	r3, [pc, #72]	; (e0 <TIM3_IRQHandler+0xe0>)
  96:	2201      	movs	r2, #1
  98:	74da      	strb	r2, [r3, #19]
  9a:	bd10      	pop	{r4, pc}
C:\cortex\dimmers\src/stm32f10x_it.c:734
        }
    }
    else if (TIM_GetITStatus(TIM3, TIM_IT_CC4) != RESET)
  9c:	480d      	ldr	r0, [pc, #52]	; (d4 <TIM3_IRQHandler+0xd4>)
  9e:	2110      	movs	r1, #16
  a0:	f7ff fffe 	bl	0 <TIM_GetITStatus>
  a4:	b1a0      	cbz	r0, d0 <TIM3_IRQHandler+0xd0>
C:\cortex\dimmers\src/stm32f10x_it.c:736
    {
        TIM_ClearITPendingBit(TIM3, TIM_IT_CC4);
  a6:	2110      	movs	r1, #16
  a8:	480a      	ldr	r0, [pc, #40]	; (d4 <TIM3_IRQHandler+0xd4>)
  aa:	f7ff fffe 	bl	0 <TIM_ClearITPendingBit>
C:\cortex\dimmers\src/stm32f10x_it.c:737
        if ( CHECK_NOT_IN_ONOFF_MODE(LIGHT4_INDEX) || forceHold4 ){
  ae:	4b0a      	ldr	r3, [pc, #40]	; (d8 <TIM3_IRQHandler+0xd8>)
  b0:	f242 7210 	movw	r2, #10000	; 0x2710
  b4:	f8b3 3054 	ldrh.w	r3, [r3, #84]	; 0x54
  b8:	4c09      	ldr	r4, [pc, #36]	; (e0 <TIM3_IRQHandler+0xe0>)
  ba:	4293      	cmp	r3, r2
  bc:	d000      	beq.n	c0 <TIM3_IRQHandler+0xc0>
  be:	b90b      	cbnz	r3, c4 <TIM3_IRQHandler+0xc4>
  c0:	7ce3      	ldrb	r3, [r4, #19]
  c2:	b12b      	cbz	r3, d0 <TIM3_IRQHandler+0xd0>
C:\cortex\dimmers\src/stm32f10x_it.c:738
            GPIO_ResetBits(GPIOC, PIN_LIGHT_4);
  c4:	4805      	ldr	r0, [pc, #20]	; (dc <TIM3_IRQHandler+0xdc>)
  c6:	2108      	movs	r1, #8
  c8:	f7ff fffe 	bl	0 <GPIO_ResetBits>
C:\cortex\dimmers\src/stm32f10x_it.c:739
            forceHold4 = FALSE;
  cc:	2300      	movs	r3, #0
  ce:	74e3      	strb	r3, [r4, #19]
  d0:	bd10      	pop	{r4, pc}
  d2:	bf00      	nop
  d4:	40000400 	.word	0x40000400
  d8:	00000000 	.word	0x00000000
  dc:	40011000 	.word	0x40011000
  e0:	00000000 	.word	0x00000000

Disassembly of section .text.TIM4_IRQHandler:

00000000 <TIM4_IRQHandler>:
TIM4_IRQHandler():
C:\cortex\dimmers\src/stm32f10x_it.c:752
* Input          : None
* Output         : None
* Return         : None
*******************************************************************************/
void TIM4_IRQHandler(void)
{
   0:	b510      	push	{r4, lr}
C:\cortex\dimmers\src/stm32f10x_it.c:755
    static bool forceHold5, forceHold6 = FALSE;

    if (TIM_GetITStatus(TIM4, TIM_IT_CC1) != RESET)
   2:	4835      	ldr	r0, [pc, #212]	; (d8 <TIM4_IRQHandler+0xd8>)
   4:	2102      	movs	r1, #2
   6:	f7ff fffe 	bl	0 <TIM_GetITStatus>
   a:	b1a0      	cbz	r0, 36 <TIM4_IRQHandler+0x36>
C:\cortex\dimmers\src/stm32f10x_it.c:757
    {
        TIM_ClearITPendingBit(TIM4, TIM_IT_CC1);
   c:	2102      	movs	r1, #2
   e:	4832      	ldr	r0, [pc, #200]	; (d8 <TIM4_IRQHandler+0xd8>)
  10:	f7ff fffe 	bl	0 <TIM_ClearITPendingBit>
C:\cortex\dimmers\src/stm32f10x_it.c:758
        if ( CHECK_NOT_IN_ONOFF_MODE(LIGHT5_INDEX) ){
  14:	4b31      	ldr	r3, [pc, #196]	; (dc <TIM4_IRQHandler+0xdc>)
  16:	f242 7210 	movw	r2, #10000	; 0x2710
  1a:	f8b3 3070 	ldrh.w	r3, [r3, #112]	; 0x70
  1e:	4293      	cmp	r3, r2
  20:	d058      	beq.n	d4 <TIM4_IRQHandler+0xd4>
  22:	2b00      	cmp	r3, #0
  24:	d056      	beq.n	d4 <TIM4_IRQHandler+0xd4>
C:\cortex\dimmers\src/stm32f10x_it.c:759
            GPIO_SetBits(GPIOC, PIN_LIGHT_5);
  26:	482e      	ldr	r0, [pc, #184]	; (e0 <TIM4_IRQHandler+0xe0>)
  28:	2110      	movs	r1, #16
  2a:	f7ff fffe 	bl	0 <GPIO_SetBits>
C:\cortex\dimmers\src/stm32f10x_it.c:760
            forceHold5 = TRUE;
  2e:	4b2d      	ldr	r3, [pc, #180]	; (e4 <TIM4_IRQHandler+0xe4>)
  30:	2201      	movs	r2, #1
  32:	751a      	strb	r2, [r3, #20]
  34:	bd10      	pop	{r4, pc}
C:\cortex\dimmers\src/stm32f10x_it.c:763
        }
    }
    else if (TIM_GetITStatus(TIM4, TIM_IT_CC2) != RESET)
  36:	4828      	ldr	r0, [pc, #160]	; (d8 <TIM4_IRQHandler+0xd8>)
  38:	2104      	movs	r1, #4
  3a:	f7ff fffe 	bl	0 <TIM_GetITStatus>
  3e:	b1b0      	cbz	r0, 6e <TIM4_IRQHandler+0x6e>
C:\cortex\dimmers\src/stm32f10x_it.c:765
    {
        TIM_ClearITPendingBit(TIM4, TIM_IT_CC2);
  40:	2104      	movs	r1, #4
  42:	4825      	ldr	r0, [pc, #148]	; (d8 <TIM4_IRQHandler+0xd8>)
  44:	f7ff fffe 	bl	0 <TIM_ClearITPendingBit>
C:\cortex\dimmers\src/stm32f10x_it.c:766
        if ( CHECK_NOT_IN_ONOFF_MODE(LIGHT5_INDEX) || forceHold5 ){
  48:	4b24      	ldr	r3, [pc, #144]	; (dc <TIM4_IRQHandler+0xdc>)
  4a:	f242 7210 	movw	r2, #10000	; 0x2710
  4e:	f8b3 3070 	ldrh.w	r3, [r3, #112]	; 0x70
  52:	4c24      	ldr	r4, [pc, #144]	; (e4 <TIM4_IRQHandler+0xe4>)
  54:	4293      	cmp	r3, r2
  56:	d000      	beq.n	5a <TIM4_IRQHandler+0x5a>
  58:	b913      	cbnz	r3, 60 <TIM4_IRQHandler+0x60>
  5a:	7d23      	ldrb	r3, [r4, #20]
  5c:	2b00      	cmp	r3, #0
  5e:	d039      	beq.n	d4 <TIM4_IRQHandler+0xd4>
C:\cortex\dimmers\src/stm32f10x_it.c:767
            GPIO_ResetBits(GPIOC, PIN_LIGHT_5);
  60:	481f      	ldr	r0, [pc, #124]	; (e0 <TIM4_IRQHandler+0xe0>)
  62:	2110      	movs	r1, #16
  64:	f7ff fffe 	bl	0 <GPIO_ResetBits>
C:\cortex\dimmers\src/stm32f10x_it.c:768
            forceHold5 = FALSE;
  68:	2300      	movs	r3, #0
  6a:	7523      	strb	r3, [r4, #20]
  6c:	bd10      	pop	{r4, pc}
C:\cortex\dimmers\src/stm32f10x_it.c:771
        }
    }
    else if (TIM_GetITStatus(TIM4, TIM_IT_CC3) != RESET)
  6e:	481a      	ldr	r0, [pc, #104]	; (d8 <TIM4_IRQHandler+0xd8>)
  70:	2108      	movs	r1, #8
  72:	f7ff fffe 	bl	0 <TIM_GetITStatus>
  76:	b198      	cbz	r0, a0 <TIM4_IRQHandler+0xa0>
C:\cortex\dimmers\src/stm32f10x_it.c:773
    {
        TIM_ClearITPendingBit(TIM4, TIM_IT_CC3);
  78:	2108      	movs	r1, #8
  7a:	4817      	ldr	r0, [pc, #92]	; (d8 <TIM4_IRQHandler+0xd8>)
  7c:	f7ff fffe 	bl	0 <TIM_ClearITPendingBit>
C:\cortex\dimmers\src/stm32f10x_it.c:774
        if ( CHECK_NOT_IN_ONOFF_MODE(LIGHT6_INDEX)){
  80:	4b16      	ldr	r3, [pc, #88]	; (dc <TIM4_IRQHandler+0xdc>)
  82:	f242 7210 	movw	r2, #10000	; 0x2710
  86:	f8b3 308c 	ldrh.w	r3, [r3, #140]	; 0x8c
  8a:	4293      	cmp	r3, r2
  8c:	d022      	beq.n	d4 <TIM4_IRQHandler+0xd4>
  8e:	b30b      	cbz	r3, d4 <TIM4_IRQHandler+0xd4>
C:\cortex\dimmers\src/stm32f10x_it.c:775
            GPIO_SetBits(GPIOC, PIN_LIGHT_6);
  90:	4813      	ldr	r0, [pc, #76]	; (e0 <TIM4_IRQHandler+0xe0>)
  92:	2120      	movs	r1, #32
  94:	f7ff fffe 	bl	0 <GPIO_SetBits>
C:\cortex\dimmers\src/stm32f10x_it.c:776
            forceHold6 = TRUE;
  98:	4b12      	ldr	r3, [pc, #72]	; (e4 <TIM4_IRQHandler+0xe4>)
  9a:	2201      	movs	r2, #1
  9c:	755a      	strb	r2, [r3, #21]
  9e:	bd10      	pop	{r4, pc}
C:\cortex\dimmers\src/stm32f10x_it.c:779
        }
    }
    else if (TIM_GetITStatus(TIM4, TIM_IT_CC4) != RESET)
  a0:	480d      	ldr	r0, [pc, #52]	; (d8 <TIM4_IRQHandler+0xd8>)
  a2:	2110      	movs	r1, #16
  a4:	f7ff fffe 	bl	0 <TIM_GetITStatus>
  a8:	b1a0      	cbz	r0, d4 <TIM4_IRQHandler+0xd4>
C:\cortex\dimmers\src/stm32f10x_it.c:781
    {
        TIM_ClearITPendingBit(TIM4, TIM_IT_CC4);
  aa:	2110      	movs	r1, #16
  ac:	480a      	ldr	r0, [pc, #40]	; (d8 <TIM4_IRQHandler+0xd8>)
  ae:	f7ff fffe 	bl	0 <TIM_ClearITPendingBit>
C:\cortex\dimmers\src/stm32f10x_it.c:782
        if ( CHECK_NOT_IN_ONOFF_MODE(LIGHT6_INDEX) || forceHold6 ){
  b2:	4b0a      	ldr	r3, [pc, #40]	; (dc <TIM4_IRQHandler+0xdc>)
  b4:	f242 7210 	movw	r2, #10000	; 0x2710
  b8:	f8b3 308c 	ldrh.w	r3, [r3, #140]	; 0x8c
  bc:	4c09      	ldr	r4, [pc, #36]	; (e4 <TIM4_IRQHandler+0xe4>)
  be:	4293      	cmp	r3, r2
  c0:	d000      	beq.n	c4 <TIM4_IRQHandler+0xc4>
  c2:	b90b      	cbnz	r3, c8 <TIM4_IRQHandler+0xc8>
  c4:	7d63      	ldrb	r3, [r4, #21]
  c6:	b12b      	cbz	r3, d4 <TIM4_IRQHandler+0xd4>
C:\cortex\dimmers\src/stm32f10x_it.c:783
            GPIO_ResetBits(GPIOC, PIN_LIGHT_6);
  c8:	4805      	ldr	r0, [pc, #20]	; (e0 <TIM4_IRQHandler+0xe0>)
  ca:	2120      	movs	r1, #32
  cc:	f7ff fffe 	bl	0 <GPIO_ResetBits>
C:\cortex\dimmers\src/stm32f10x_it.c:784
            forceHold6 = FALSE;
  d0:	2300      	movs	r3, #0
  d2:	7563      	strb	r3, [r4, #21]
  d4:	bd10      	pop	{r4, pc}
  d6:	bf00      	nop
  d8:	40000800 	.word	0x40000800
  dc:	00000000 	.word	0x00000000
  e0:	40011000 	.word	0x40011000
  e4:	00000000 	.word	0x00000000

Disassembly of section .text.I2C1_EV_IRQHandler:

00000000 <I2C1_EV_IRQHandler>:
I2C1_EV_IRQHandler():
C:\cortex\dimmers\src/stm32f10x_it.c:797
* Input          : None
* Output         : None
* Return         : None
*******************************************************************************/
void I2C1_EV_IRQHandler(void)
{
   0:	4824b510 	.word	0x4824b510
C:\cortex\dimmers\src/stm32f10x_it.c:801
    static u32 evt;
    static u32 count;

    evt =  I2C_GetLastEvent(I2C1);
   4:	f7ff fffe 	bl	0 <I2C_GetLastEvent>
   8:	4b23      	ldr	r3, [pc, #140]	; (98 <I2C1_EV_IRQHandler+0x98>)
   a:	6198      	str	r0, [r3, #24]
C:\cortex\dimmers\src/stm32f10x_it.c:803

    switch (evt)
   c:	4b23      	ldr	r3, [pc, #140]	; (9c <I2C1_EV_IRQHandler+0x9c>)
   e:	4298      	cmp	r0, r3
  10:	d01c      	beq.n	4c <I2C1_EV_IRQHandler+0x4c>
  12:	d805      	bhi.n	20 <I2C1_EV_IRQHandler+0x20>
  14:	2810      	cmp	r0, #16
  16:	d02c      	beq.n	72 <I2C1_EV_IRQHandler+0x72>
  18:	f5b0 6f80 	cmp.w	r0, #1024	; 0x400
  1c:	d139      	bne.n	92 <I2C1_EV_IRQHandler+0x92>
  1e:	e022      	b.n	66 <I2C1_EV_IRQHandler+0x66>
  20:	4b1f      	ldr	r3, [pc, #124]	; (a0 <I2C1_EV_IRQHandler+0xa0>)
  22:	4298      	cmp	r0, r3
  24:	d003      	beq.n	2e <I2C1_EV_IRQHandler+0x2e>
  26:	3302      	adds	r3, #2
  28:	4298      	cmp	r0, r3
  2a:	d132      	bne.n	92 <I2C1_EV_IRQHandler+0x92>
  2c:	e00e      	b.n	4c <I2C1_EV_IRQHandler+0x4c>
C:\cortex\dimmers\src/stm32f10x_it.c:806
    {
        case I2C_EVENT_SLAVE_TRANSMITTER_ADDRESS_MATCHED:
             TxIdx = 0;       
  2e:	4c1d      	ldr	r4, [pc, #116]	; (a4 <I2C1_EV_IRQHandler+0xa4>)
  30:	2300      	movs	r3, #0
C:\cortex\dimmers\src/stm32f10x_it.c:807
             I2C_ITConfig(I2C1, I2C_IT_BUF , ENABLE);
  32:	f44f 6180 	mov.w	r1, #1024	; 0x400
  36:	2201      	movs	r2, #1
  38:	4816      	ldr	r0, [pc, #88]	; (94 <I2C1_EV_IRQHandler+0x94>)
C:\cortex\dimmers\src/stm32f10x_it.c:806
    evt =  I2C_GetLastEvent(I2C1);

    switch (evt)
    {
        case I2C_EVENT_SLAVE_TRANSMITTER_ADDRESS_MATCHED:
             TxIdx = 0;       
  3a:	8023      	strh	r3, [r4, #0]
C:\cortex\dimmers\src/stm32f10x_it.c:807
             I2C_ITConfig(I2C1, I2C_IT_BUF , ENABLE);
  3c:	f7ff fffe 	bl	0 <I2C_ITConfig>
C:\cortex\dimmers\src/stm32f10x_it.c:808
             I2C_SendData(I2C1, InternData.values[TxIdx++]);
  40:	8823      	ldrh	r3, [r4, #0]
  42:	4a19      	ldr	r2, [pc, #100]	; (a8 <I2C1_EV_IRQHandler+0xa8>)
  44:	5cd1      	ldrb	r1, [r2, r3]
  46:	3301      	adds	r3, #1
  48:	8023      	strh	r3, [r4, #0]
  4a:	e007      	b.n	5c <I2C1_EV_IRQHandler+0x5c>
C:\cortex\dimmers\src/stm32f10x_it.c:812
        break;
        case I2C_EVENT_SLAVE_BYTE_TRANSMITTED:
        case I2C_EVENT_SLAVE_BYTE_TRANSMITTED_NO_BTF:
            if ( TxIdx <  sizeof (TBKPData) )
  4c:	4a15      	ldr	r2, [pc, #84]	; (a4 <I2C1_EV_IRQHandler+0xa4>)
  4e:	8813      	ldrh	r3, [r2, #0]
  50:	2b53      	cmp	r3, #83	; 0x53
  52:	d81e      	bhi.n	92 <I2C1_EV_IRQHandler+0x92>
C:\cortex\dimmers\src/stm32f10x_it.c:813
                I2C_SendData(I2C1, InternData.values[TxIdx++]);
  54:	4914      	ldr	r1, [pc, #80]	; (a8 <I2C1_EV_IRQHandler+0xa8>)
  56:	5cc9      	ldrb	r1, [r1, r3]
  58:	3301      	adds	r3, #1
  5a:	8013      	strh	r3, [r2, #0]
  5c:	480d      	ldr	r0, [pc, #52]	; (94 <I2C1_EV_IRQHandler+0x94>)
C:\cortex\dimmers\src/stm32f10x_it.c:827
        break;        
        default:

        break;
  }
}
  5e:	e8bd 4010 	ldmia.w	sp!, {r4, lr}
C:\cortex\dimmers\src/stm32f10x_it.c:813
             I2C_SendData(I2C1, InternData.values[TxIdx++]);
        break;
        case I2C_EVENT_SLAVE_BYTE_TRANSMITTED:
        case I2C_EVENT_SLAVE_BYTE_TRANSMITTED_NO_BTF:
            if ( TxIdx <  sizeof (TBKPData) )
                I2C_SendData(I2C1, InternData.values[TxIdx++]);
  62:	f7ff bffe 	b.w	0 <I2C_SendData>
C:\cortex\dimmers\src/stm32f10x_it.c:816
        break;
        case I2C_EVENT_SLAVE_ACK_FAILURE:
            I2C_ClearFlag(I2C1, I2C_IT_AF);
  66:	480b      	ldr	r0, [pc, #44]	; (94 <I2C1_EV_IRQHandler+0x94>)
  68:	4910      	ldr	r1, [pc, #64]	; (ac <I2C1_EV_IRQHandler+0xac>)
C:\cortex\dimmers\src/stm32f10x_it.c:827
        break;        
        default:

        break;
  }
}
  6a:	e8bd 4010 	ldmia.w	sp!, {r4, lr}
C:\cortex\dimmers\src/stm32f10x_it.c:816
        case I2C_EVENT_SLAVE_BYTE_TRANSMITTED_NO_BTF:
            if ( TxIdx <  sizeof (TBKPData) )
                I2C_SendData(I2C1, InternData.values[TxIdx++]);
        break;
        case I2C_EVENT_SLAVE_ACK_FAILURE:
            I2C_ClearFlag(I2C1, I2C_IT_AF);
  6e:	f7ff bffe 	b.w	0 <I2C_ClearFlag>
C:\cortex\dimmers\src/stm32f10x_it.c:819
        break;
        case I2C_EVENT_SLAVE_STOP_DETECTED:
           I2C_ITConfig(I2C1, I2C_IT_BUF , DISABLE);
  72:	2200      	movs	r2, #0
  74:	4807      	ldr	r0, [pc, #28]	; (94 <I2C1_EV_IRQHandler+0x94>)
  76:	f44f 6180 	mov.w	r1, #1024	; 0x400
  7a:	f7ff fffe 	bl	0 <I2C_ITConfig>
C:\cortex\dimmers\src/stm32f10x_it.c:820
           (void)(I2C_GetITStatus(I2C1, I2C_IT_STOPF));
  7e:	490c      	ldr	r1, [pc, #48]	; (b0 <I2C1_EV_IRQHandler+0xb0>)
  80:	4804      	ldr	r0, [pc, #16]	; (94 <I2C1_EV_IRQHandler+0x94>)
  82:	f7ff fffe 	bl	0 <I2C_GetITStatus>
C:\cortex\dimmers\src/stm32f10x_it.c:821
           I2C_Cmd(I2C1, ENABLE);
  86:	4803      	ldr	r0, [pc, #12]	; (94 <I2C1_EV_IRQHandler+0x94>)
  88:	2101      	movs	r1, #1
C:\cortex\dimmers\src/stm32f10x_it.c:827
        break;        
        default:

        break;
  }
}
  8a:	e8bd 4010 	ldmia.w	sp!, {r4, lr}
C:\cortex\dimmers\src/stm32f10x_it.c:821
            I2C_ClearFlag(I2C1, I2C_IT_AF);
        break;
        case I2C_EVENT_SLAVE_STOP_DETECTED:
           I2C_ITConfig(I2C1, I2C_IT_BUF , DISABLE);
           (void)(I2C_GetITStatus(I2C1, I2C_IT_STOPF));
           I2C_Cmd(I2C1, ENABLE);
  8e:	f7ff bffe 	b.w	0 <I2C_Cmd>
  92:	bd10      	pop	{r4, pc}
  94:	40005400 	.word	0x40005400
  98:	00000000 	.word	0x00000000
  9c:	00060080 	.word	0x00060080
  a0:	00060082 	.word	0x00060082
	...
  ac:	01000400 	.word	0x01000400
  b0:	02000010 	.word	0x02000010

Disassembly of section .text.I2C1_ER_IRQHandler:

00000000 <I2C1_ER_IRQHandler>:
I2C1_ER_IRQHandler():
C:\cortex\dimmers\src/stm32f10x_it.c:837
* Input          : None
* Output         : None
* Return         : None
*******************************************************************************/
void I2C1_ER_IRQHandler(void)
{
   0:	4813b510 	.word	0x4813b510
C:\cortex\dimmers\src/stm32f10x_it.c:838
  if (I2C_GetITStatus(I2C1, I2C_IT_AF)) 
   4:	4913      	ldr	r1, [pc, #76]	; (50 <I2C_GetITStatus+0x50>)
   6:	f7ff fffe 	bl	0 <I2C_GetITStatus>
   a:	b118      	cbz	r0, 14 <I2C1_ER_IRQHandler+0x14>
C:\cortex\dimmers\src/stm32f10x_it.c:840
  {
    I2C_ClearITPendingBit(I2C1, I2C_IT_AF);
   c:	4810      	ldr	r0, [pc, #64]	; (50 <I2C1_ER_IRQHandler+0x50>)
   e:	4911      	ldr	r1, [pc, #68]	; (54 <I2C1_ER_IRQHandler+0x54>)
  10:	f7ff fffe 	bl	0 <I2C_ClearITPendingBit>
C:\cortex\dimmers\src/stm32f10x_it.c:843
  
  }  
  if (I2C_GetITStatus(I2C1, I2C_IT_BERR)) 
  14:	480e      	ldr	r0, [pc, #56]	; (50 <I2C1_ER_IRQHandler+0x50>)
  16:	4910      	ldr	r1, [pc, #64]	; (58 <I2C1_ER_IRQHandler+0x58>)
  18:	f7ff fffe 	bl	0 <I2C_GetITStatus>
  1c:	b118      	cbz	r0, 26 <I2C1_ER_IRQHandler+0x26>
C:\cortex\dimmers\src/stm32f10x_it.c:845
  {
    I2C_ClearITPendingBit(I2C1, I2C_IT_BERR);
  1e:	480c      	ldr	r0, [pc, #48]	; (50 <I2C1_ER_IRQHandler+0x50>)
  20:	490d      	ldr	r1, [pc, #52]	; (58 <I2C1_ER_IRQHandler+0x58>)
  22:	f7ff fffe 	bl	0 <I2C_ClearITPendingBit>
C:\cortex\dimmers\src/stm32f10x_it.c:847
  }
  if (I2C_GetITStatus(I2C1, I2C_IT_ARLO)) 
  26:	480a      	ldr	r0, [pc, #40]	; (50 <I2C1_ER_IRQHandler+0x50>)
  28:	490c      	ldr	r1, [pc, #48]	; (5c <I2C1_ER_IRQHandler+0x5c>)
  2a:	f7ff fffe 	bl	0 <I2C_GetITStatus>
  2e:	b118      	cbz	r0, 38 <I2C1_ER_IRQHandler+0x38>
C:\cortex\dimmers\src/stm32f10x_it.c:849
  {
    I2C_ClearITPendingBit(I2C1, I2C_IT_ARLO);
  30:	4807      	ldr	r0, [pc, #28]	; (50 <I2C1_ER_IRQHandler+0x50>)
  32:	490a      	ldr	r1, [pc, #40]	; (5c <I2C1_ER_IRQHandler+0x5c>)
  34:	f7ff fffe 	bl	0 <I2C_ClearITPendingBit>
C:\cortex\dimmers\src/stm32f10x_it.c:851
  }
  if (I2C_GetITStatus(I2C1, I2C_IT_OVR)) 
  38:	4805      	ldr	r0, [pc, #20]	; (50 <I2C1_ER_IRQHandler+0x50>)
  3a:	4909      	ldr	r1, [pc, #36]	; (60 <I2C1_ER_IRQHandler+0x60>)
  3c:	f7ff fffe 	bl	0 <I2C_GetITStatus>
  40:	b128      	cbz	r0, 4e <I2C1_ER_IRQHandler+0x4e>
C:\cortex\dimmers\src/stm32f10x_it.c:853
  {
    I2C_ClearITPendingBit(I2C1, I2C_IT_OVR);
  42:	4803      	ldr	r0, [pc, #12]	; (50 <I2C1_ER_IRQHandler+0x50>)
  44:	4906      	ldr	r1, [pc, #24]	; (60 <I2C1_ER_IRQHandler+0x60>)
C:\cortex\dimmers\src/stm32f10x_it.c:855
  }
}
  46:	e8bd 4010 	ldmia.w	sp!, {r4, lr}
C:\cortex\dimmers\src/stm32f10x_it.c:853
  {
    I2C_ClearITPendingBit(I2C1, I2C_IT_ARLO);
  }
  if (I2C_GetITStatus(I2C1, I2C_IT_OVR)) 
  {
    I2C_ClearITPendingBit(I2C1, I2C_IT_OVR);
  4a:	f7ff bffe 	b.w	0 <I2C_ClearITPendingBit>
  4e:	bd10      	pop	{r4, pc}
  50:	40005400 	.word	0x40005400
  54:	01000400 	.word	0x01000400
  58:	01000100 	.word	0x01000100
  5c:	01000200 	.word	0x01000200
  60:	01000800 	.word	0x01000800

Disassembly of section .text.I2C2_EV_IRQHandler:

00000000 <I2C2_EV_IRQHandler>:
I2C2_EV_IRQHandler():
C:\cortex\dimmers\src/stm32f10x_it.c:865
* Input          : None
* Output         : None
* Return         : None
*******************************************************************************/
void I2C2_EV_IRQHandler(void)
{
   0:	b570      	push	{r4, r5, r6, lr}
C:\cortex\dimmers\src/stm32f10x_it.c:869
    static u32 evt;
    static u32 count;

    evt =  I2C_GetLastEvent(I2C2);
   2:	4857      	ldr	r0, [pc, #348]	; (160 <I2C2_EV_IRQHandler+0x160>)
   4:	f7ff fffe 	bl	0 <I2C_GetLastEvent>
   8:	4b56      	ldr	r3, [pc, #344]	; (164 <I2C2_EV_IRQHandler+0x164>)
   a:	61d8      	str	r0, [r3, #28]
C:\cortex\dimmers\src/stm32f10x_it.c:871

    switch (evt){
   c:	4b56      	ldr	r3, [pc, #344]	; (168 <I2C2_EV_IRQHandler+0x168>)
   e:	4298      	cmp	r0, r3
  10:	d02c      	beq.n	6c <I2C2_EV_IRQHandler+0x6c>
  12:	d815      	bhi.n	40 <I2C2_EV_IRQHandler+0x40>
  14:	f5b0 6f80 	cmp.w	r0, #1024	; 0x400
  18:	f000 809a 	beq.w	150 <I2C2_EV_IRQHandler+0x150>
  1c:	d805      	bhi.n	2a <I2C2_EV_IRQHandler+0x2a>
  1e:	2810      	cmp	r0, #16
  20:	d076      	beq.n	110 <I2C2_EV_IRQHandler+0x110>
  22:	2850      	cmp	r0, #80	; 0x50
  24:	f040 809a 	bne.w	15c <I2C2_EV_IRQHandler+0x15c>
  28:	e072      	b.n	110 <I2C2_EV_IRQHandler+0x110>
  2a:	4b50      	ldr	r3, [pc, #320]	; (16c <I2C2_EV_IRQHandler+0x16c>)
  2c:	4298      	cmp	r0, r3
  2e:	d063      	beq.n	f8 <I2C2_EV_IRQHandler+0xf8>
  30:	3304      	adds	r3, #4
  32:	4298      	cmp	r0, r3
  34:	d060      	beq.n	f8 <I2C2_EV_IRQHandler+0xf8>
  36:	f1b0 1f02 	cmp.w	r0, #131074	; 0x20002
  3a:	f040 808f 	bne.w	15c <I2C2_EV_IRQHandler+0x15c>
  3e:	e050      	b.n	e2 <I2C2_EV_IRQHandler+0xe2>
  40:	4b4b      	ldr	r3, [pc, #300]	; (170 <I2C2_EV_IRQHandler+0x170>)
  42:	4298      	cmp	r0, r3
  44:	d021      	beq.n	8a <I2C2_EV_IRQHandler+0x8a>
  46:	d807      	bhi.n	58 <I2C2_EV_IRQHandler+0x58>
  48:	3b42      	subs	r3, #66	; 0x42
  4a:	4298      	cmp	r0, r3
  4c:	d019      	beq.n	82 <I2C2_EV_IRQHandler+0x82>
  4e:	333e      	adds	r3, #62	; 0x3e
  50:	4298      	cmp	r0, r3
  52:	f040 8083 	bne.w	15c <I2C2_EV_IRQHandler+0x15c>
  56:	e018      	b.n	8a <I2C2_EV_IRQHandler+0x8a>
  58:	4b46      	ldr	r3, [pc, #280]	; (174 <I2C2_EV_IRQHandler+0x174>)
  5a:	4298      	cmp	r0, r3
  5c:	d028      	beq.n	b0 <I2C2_EV_IRQHandler+0xb0>
  5e:	3302      	adds	r3, #2
  60:	4298      	cmp	r0, r3
  62:	d02b      	beq.n	bc <I2C2_EV_IRQHandler+0xbc>
  64:	3b04      	subs	r3, #4
  66:	4298      	cmp	r0, r3
  68:	d178      	bne.n	15c <I2C2_EV_IRQHandler+0x15c>
  6a:	e027      	b.n	bc <I2C2_EV_IRQHandler+0xbc>
C:\cortex\dimmers\src/stm32f10x_it.c:873
        case I2C_EVENT_MASTER_MODE_SELECT:
             I2C_AcknowledgeConfig(I2C2, ENABLE);
  6c:	2101      	movs	r1, #1
  6e:	483c      	ldr	r0, [pc, #240]	; (160 <I2C2_EV_IRQHandler+0x160>)
  70:	f7ff fffe 	bl	0 <I2C_AcknowledgeConfig>
C:\cortex\dimmers\src/stm32f10x_it.c:874
             I2C_Send7bitAddress(I2C2 , I2C1_SLAVE_ADDRESS7_CORTEX2 , I2C_Direction_Receiver);
  74:	483a      	ldr	r0, [pc, #232]	; (160 <I2C2_EV_IRQHandler+0x160>)
  76:	2130      	movs	r1, #48	; 0x30
  78:	2201      	movs	r2, #1
C:\cortex\dimmers\src/stm32f10x_it.c:926
        break;
        default:
 
        break;
    }
}
  7a:	e8bd 4070 	ldmia.w	sp!, {r4, r5, r6, lr}
C:\cortex\dimmers\src/stm32f10x_it.c:874
    evt =  I2C_GetLastEvent(I2C2);

    switch (evt){
        case I2C_EVENT_MASTER_MODE_SELECT:
             I2C_AcknowledgeConfig(I2C2, ENABLE);
             I2C_Send7bitAddress(I2C2 , I2C1_SLAVE_ADDRESS7_CORTEX2 , I2C_Direction_Receiver);
  7e:	f7ff bffe 	b.w	0 <I2C_Send7bitAddress>
C:\cortex\dimmers\src/stm32f10x_it.c:877
        break;
        case I2C_EVENT_MASTER_RECEIVER_MODE_SELECTED:
             RxIdx = 0;
  82:	4b3d      	ldr	r3, [pc, #244]	; (178 <I2C2_EV_IRQHandler+0x178>)
  84:	2200      	movs	r2, #0
  86:	801a      	strh	r2, [r3, #0]
C:\cortex\dimmers\src/stm32f10x_it.c:878
        break;
  88:	bd70      	pop	{r4, r5, r6, pc}
C:\cortex\dimmers\src/stm32f10x_it.c:881
        case I2C_EVENT_MASTER_BYTE_RECEIVED:
        case I2C_EVENT_MASTER_BYTE_RECEIVED_WITH_BTF:    
            if (RxIdx < sizeof (TBKPData)) 
  8a:	4d3b      	ldr	r5, [pc, #236]	; (178 <I2C2_EV_IRQHandler+0x178>)
  8c:	882c      	ldrh	r4, [r5, #0]
  8e:	2c53      	cmp	r4, #83	; 0x53
  90:	d806      	bhi.n	a0 <I2C2_EV_IRQHandler+0xa0>
C:\cortex\dimmers\src/stm32f10x_it.c:882
               ExternData.values[RxIdx++] = I2C_ReceiveData(I2C2);
  92:	4833      	ldr	r0, [pc, #204]	; (160 <I2C2_EV_IRQHandler+0x160>)
  94:	f7ff fffe 	bl	0 <I2C_ReceiveData>
  98:	4b38      	ldr	r3, [pc, #224]	; (17c <I2C2_EV_IRQHandler+0x17c>)
  9a:	5518      	strb	r0, [r3, r4]
  9c:	3401      	adds	r4, #1
  9e:	802c      	strh	r4, [r5, #0]
C:\cortex\dimmers\src/stm32f10x_it.c:883
            if( RxIdx == (sizeof (TBKPData) - 1) )
  a0:	882b      	ldrh	r3, [r5, #0]
  a2:	2b53      	cmp	r3, #83	; 0x53
  a4:	d15a      	bne.n	15c <I2C2_EV_IRQHandler+0x15c>
C:\cortex\dimmers\src/stm32f10x_it.c:885
            {
                I2C_AcknowledgeConfig(I2C2, DISABLE);
  a6:	482e      	ldr	r0, [pc, #184]	; (160 <I2C2_EV_IRQHandler+0x160>)
  a8:	2100      	movs	r1, #0
  aa:	f7ff fffe 	bl	0 <I2C_AcknowledgeConfig>
  ae:	e012      	b.n	d6 <I2C2_EV_IRQHandler+0xd6>
C:\cortex\dimmers\src/stm32f10x_it.c:891
                I2C_GenerateSTOP(I2C2, ENABLE);
            }
        break;        
        case I2C_EVENT_MASTER_TRANSMITTER_MODE_SELECTED:
             TxIdx = 0;
             I2C_SendData(I2C2, InternData.values[TxIdx++]);
  b0:	4b33      	ldr	r3, [pc, #204]	; (180 <I2C2_EV_IRQHandler+0x180>)
  b2:	2201      	movs	r2, #1
  b4:	7819      	ldrb	r1, [r3, #0]
  b6:	4b33      	ldr	r3, [pc, #204]	; (184 <I2C2_EV_IRQHandler+0x184>)
  b8:	801a      	strh	r2, [r3, #0]
  ba:	e007      	b.n	cc <I2C2_EV_IRQHandler+0xcc>
C:\cortex\dimmers\src/stm32f10x_it.c:895
        break;
        case I2C_EVENT_MASTER_BYTE_TRANSMITTING:
        case I2C_EVENT_MASTER_BYTE_TRANSMITTED:            
            if ( TxIdx <  sizeof (TBKPData) )
  bc:	4a31      	ldr	r2, [pc, #196]	; (184 <I2C2_EV_IRQHandler+0x184>)
  be:	8813      	ldrh	r3, [r2, #0]
  c0:	2b53      	cmp	r3, #83	; 0x53
  c2:	d808      	bhi.n	d6 <I2C2_EV_IRQHandler+0xd6>
C:\cortex\dimmers\src/stm32f10x_it.c:896
                I2C_SendData(I2C2, InternData.values[TxIdx++]);
  c4:	492e      	ldr	r1, [pc, #184]	; (180 <I2C2_EV_IRQHandler+0x180>)
  c6:	5cc9      	ldrb	r1, [r1, r3]
  c8:	3301      	adds	r3, #1
  ca:	8013      	strh	r3, [r2, #0]
  cc:	4824      	ldr	r0, [pc, #144]	; (160 <I2C2_EV_IRQHandler+0x160>)
C:\cortex\dimmers\src/stm32f10x_it.c:926
        break;
        default:
 
        break;
    }
}
  ce:	e8bd 4070 	ldmia.w	sp!, {r4, r5, r6, lr}
C:\cortex\dimmers\src/stm32f10x_it.c:896
             I2C_SendData(I2C2, InternData.values[TxIdx++]);
        break;
        case I2C_EVENT_MASTER_BYTE_TRANSMITTING:
        case I2C_EVENT_MASTER_BYTE_TRANSMITTED:            
            if ( TxIdx <  sizeof (TBKPData) )
                I2C_SendData(I2C2, InternData.values[TxIdx++]);
  d2:	f7ff bffe 	b.w	0 <I2C_SendData>
C:\cortex\dimmers\src/stm32f10x_it.c:898
            else
                I2C_GenerateSTOP(I2C2, ENABLE);                
  d6:	4822      	ldr	r0, [pc, #136]	; (160 <I2C2_EV_IRQHandler+0x160>)
  d8:	2101      	movs	r1, #1
C:\cortex\dimmers\src/stm32f10x_it.c:926
        break;
        default:
 
        break;
    }
}
  da:	e8bd 4070 	ldmia.w	sp!, {r4, r5, r6, lr}
C:\cortex\dimmers\src/stm32f10x_it.c:898
        case I2C_EVENT_MASTER_BYTE_TRANSMITTING:
        case I2C_EVENT_MASTER_BYTE_TRANSMITTED:            
            if ( TxIdx <  sizeof (TBKPData) )
                I2C_SendData(I2C2, InternData.values[TxIdx++]);
            else
                I2C_GenerateSTOP(I2C2, ENABLE);                
  de:	f7ff bffe 	b.w	0 <I2C_GenerateSTOP>
C:\cortex\dimmers\src/stm32f10x_it.c:901
        break;
        case I2C_EVENT_SLAVE_RECEIVER_ADDRESS_MATCHED:
            RxIdx = 0;
  e2:	4b25      	ldr	r3, [pc, #148]	; (178 <I2C2_EV_IRQHandler+0x178>)
  e4:	2200      	movs	r2, #0
C:\cortex\dimmers\src/stm32f10x_it.c:902
            I2C_ITConfig(I2C2, I2C_IT_BUF , ENABLE);
  e6:	481e      	ldr	r0, [pc, #120]	; (160 <I2C2_EV_IRQHandler+0x160>)
C:\cortex\dimmers\src/stm32f10x_it.c:901
                I2C_SendData(I2C2, InternData.values[TxIdx++]);
            else
                I2C_GenerateSTOP(I2C2, ENABLE);                
        break;
        case I2C_EVENT_SLAVE_RECEIVER_ADDRESS_MATCHED:
            RxIdx = 0;
  e8:	801a      	strh	r2, [r3, #0]
C:\cortex\dimmers\src/stm32f10x_it.c:902
            I2C_ITConfig(I2C2, I2C_IT_BUF , ENABLE);
  ea:	f44f 6180 	mov.w	r1, #1024	; 0x400
  ee:	2201      	movs	r2, #1
C:\cortex\dimmers\src/stm32f10x_it.c:926
        break;
        default:
 
        break;
    }
}
  f0:	e8bd 4070 	ldmia.w	sp!, {r4, r5, r6, lr}
C:\cortex\dimmers\src/stm32f10x_it.c:902
            else
                I2C_GenerateSTOP(I2C2, ENABLE);                
        break;
        case I2C_EVENT_SLAVE_RECEIVER_ADDRESS_MATCHED:
            RxIdx = 0;
            I2C_ITConfig(I2C2, I2C_IT_BUF , ENABLE);
  f4:	f7ff bffe 	b.w	0 <I2C_ITConfig>
C:\cortex\dimmers\src/stm32f10x_it.c:906
        break;
        case I2C_EVENT_SLAVE_BYTE_RECEIVED:
        case I2C_EVENT_SLAVE_BYTE_RECEIVED_WITH_BTF:
           if (RxIdx < sizeof (TBKPData)) 
  f8:	4d1f      	ldr	r5, [pc, #124]	; (178 <I2C2_EV_IRQHandler+0x178>)
  fa:	882c      	ldrh	r4, [r5, #0]
  fc:	2c53      	cmp	r4, #83	; 0x53
  fe:	d82d      	bhi.n	15c <I2C2_EV_IRQHandler+0x15c>
C:\cortex\dimmers\src/stm32f10x_it.c:907
               ExternData.values[RxIdx++] = I2C_ReceiveData(I2C2);
 100:	4817      	ldr	r0, [pc, #92]	; (160 <I2C2_EV_IRQHandler+0x160>)
 102:	f7ff fffe 	bl	0 <I2C_ReceiveData>
 106:	4b1d      	ldr	r3, [pc, #116]	; (17c <I2C2_EV_IRQHandler+0x17c>)
 108:	5518      	strb	r0, [r3, r4]
 10a:	3401      	adds	r4, #1
 10c:	802c      	strh	r4, [r5, #0]
 10e:	bd70      	pop	{r4, r5, r6, pc}
C:\cortex\dimmers\src/stm32f10x_it.c:912
        break; 
        case I2C_EVENT_SLAVE_STOP_DETECTED:
        case I2C_EVENT_SLAVE_BYTE_RECEIVED_AND_STOP:
            I2C_ITConfig( I2C2, I2C_IT_BUF , DISABLE );
            if (RxIdx < sizeof (TBKPData)) 
 110:	4c19      	ldr	r4, [pc, #100]	; (178 <I2C2_EV_IRQHandler+0x178>)
C:\cortex\dimmers\src/stm32f10x_it.c:911
           if (RxIdx < sizeof (TBKPData)) 
               ExternData.values[RxIdx++] = I2C_ReceiveData(I2C2);
        break; 
        case I2C_EVENT_SLAVE_STOP_DETECTED:
        case I2C_EVENT_SLAVE_BYTE_RECEIVED_AND_STOP:
            I2C_ITConfig( I2C2, I2C_IT_BUF , DISABLE );
 112:	2200      	movs	r2, #0
 114:	4812      	ldr	r0, [pc, #72]	; (160 <I2C2_EV_IRQHandler+0x160>)
 116:	f44f 6180 	mov.w	r1, #1024	; 0x400
 11a:	f7ff fffe 	bl	0 <I2C_ITConfig>
C:\cortex\dimmers\src/stm32f10x_it.c:912
            if (RxIdx < sizeof (TBKPData)) 
 11e:	8825      	ldrh	r5, [r4, #0]
 120:	2d53      	cmp	r5, #83	; 0x53
 122:	d806      	bhi.n	132 <I2C2_EV_IRQHandler+0x132>
C:\cortex\dimmers\src/stm32f10x_it.c:913
                ExternData.values[RxIdx++] = I2C_ReceiveData(I2C2);
 124:	480e      	ldr	r0, [pc, #56]	; (160 <I2C2_EV_IRQHandler+0x160>)
 126:	f7ff fffe 	bl	0 <I2C_ReceiveData>
 12a:	4b14      	ldr	r3, [pc, #80]	; (17c <I2C2_EV_IRQHandler+0x17c>)
 12c:	5558      	strb	r0, [r3, r5]
 12e:	3501      	adds	r5, #1
 130:	8025      	strh	r5, [r4, #0]
C:\cortex\dimmers\src/stm32f10x_it.c:914
            (void)(I2C_GetITStatus(I2C2, I2C_IT_STOPF));
 132:	4915      	ldr	r1, [pc, #84]	; (188 <I2C2_EV_IRQHandler+0x188>)
 134:	480a      	ldr	r0, [pc, #40]	; (160 <I2C2_EV_IRQHandler+0x160>)
 136:	f7ff fffe 	bl	0 <I2C_GetITStatus>
C:\cortex\dimmers\src/stm32f10x_it.c:915
            I2C_Cmd(I2C2, ENABLE);
 13a:	2101      	movs	r1, #1
 13c:	4808      	ldr	r0, [pc, #32]	; (160 <I2C2_EV_IRQHandler+0x160>)
 13e:	f7ff fffe 	bl	0 <I2C_Cmd>
C:\cortex\dimmers\src/stm32f10x_it.c:916
            if (RxIdx == sizeof (TBKPData) )
 142:	8823      	ldrh	r3, [r4, #0]
 144:	2b54      	cmp	r3, #84	; 0x54
 146:	d109      	bne.n	15c <I2C2_EV_IRQHandler+0x15c>
C:\cortex\dimmers\src/stm32f10x_it.c:917
                I2CRecReady = TRUE;
 148:	4b10      	ldr	r3, [pc, #64]	; (18c <I2C2_EV_IRQHandler+0x18c>)
 14a:	2201      	movs	r2, #1
 14c:	701a      	strb	r2, [r3, #0]
 14e:	bd70      	pop	{r4, r5, r6, pc}
C:\cortex\dimmers\src/stm32f10x_it.c:920
        break;
        case I2C_EVENT_SLAVE_ACK_FAILURE:
            I2C_ClearFlag(I2C2, I2C_IT_AF);
 150:	4803      	ldr	r0, [pc, #12]	; (160 <I2C2_EV_IRQHandler+0x160>)
 152:	490f      	ldr	r1, [pc, #60]	; (190 <I2C2_EV_IRQHandler+0x190>)
C:\cortex\dimmers\src/stm32f10x_it.c:926
        break;
        default:
 
        break;
    }
}
 154:	e8bd 4070 	ldmia.w	sp!, {r4, r5, r6, lr}
C:\cortex\dimmers\src/stm32f10x_it.c:920
            I2C_Cmd(I2C2, ENABLE);
            if (RxIdx == sizeof (TBKPData) )
                I2CRecReady = TRUE;
        break;
        case I2C_EVENT_SLAVE_ACK_FAILURE:
            I2C_ClearFlag(I2C2, I2C_IT_AF);
 158:	f7ff bffe 	b.w	0 <I2C_ClearFlag>
 15c:	bd70      	pop	{r4, r5, r6, pc}
 15e:	bf00      	nop
 160:	40005800 	.word	0x40005800
 164:	00000000 	.word	0x00000000
 168:	00030001 	.word	0x00030001
 16c:	00020040 	.word	0x00020040
 170:	00030044 	.word	0x00030044
 174:	00070082 	.word	0x00070082
	...
 188:	02000010 	.word	0x02000010
 18c:	00000000 	.word	0x00000000
 190:	01000400 	.word	0x01000400

Disassembly of section .text.I2C2_ER_IRQHandler:

00000000 <I2C2_ER_IRQHandler>:
I2C2_ER_IRQHandler():
C:\cortex\dimmers\src/stm32f10x_it.c:936
* Input          : None
* Output         : None
* Return         : None
*******************************************************************************/
void I2C2_ER_IRQHandler(void)
{
   0:	4813b510 	.word	0x4813b510
C:\cortex\dimmers\src/stm32f10x_it.c:938

  if (I2C_GetITStatus(I2C2, I2C_IT_AF)) 
   4:	4913      	ldr	r1, [pc, #76]	; (50 <I2C_GetITStatus+0x50>)
   6:	f7ff fffe 	bl	0 <I2C_GetITStatus>
   a:	b118      	cbz	r0, 14 <I2C2_ER_IRQHandler+0x14>
C:\cortex\dimmers\src/stm32f10x_it.c:940
  {
    I2C_ClearITPendingBit(I2C2, I2C_IT_AF);
   c:	4810      	ldr	r0, [pc, #64]	; (50 <I2C2_ER_IRQHandler+0x50>)
   e:	4911      	ldr	r1, [pc, #68]	; (54 <I2C2_ER_IRQHandler+0x54>)
  10:	f7ff fffe 	bl	0 <I2C_ClearITPendingBit>
C:\cortex\dimmers\src/stm32f10x_it.c:942
  }
  if (I2C_GetITStatus(I2C2, I2C_IT_BERR)) 
  14:	480e      	ldr	r0, [pc, #56]	; (50 <I2C2_ER_IRQHandler+0x50>)
  16:	4910      	ldr	r1, [pc, #64]	; (58 <I2C2_ER_IRQHandler+0x58>)
  18:	f7ff fffe 	bl	0 <I2C_GetITStatus>
  1c:	b118      	cbz	r0, 26 <I2C2_ER_IRQHandler+0x26>
C:\cortex\dimmers\src/stm32f10x_it.c:944
  {
    I2C_ClearITPendingBit(I2C2, I2C_IT_BERR);
  1e:	480c      	ldr	r0, [pc, #48]	; (50 <I2C2_ER_IRQHandler+0x50>)
  20:	490d      	ldr	r1, [pc, #52]	; (58 <I2C2_ER_IRQHandler+0x58>)
  22:	f7ff fffe 	bl	0 <I2C_ClearITPendingBit>
C:\cortex\dimmers\src/stm32f10x_it.c:946
  }
  if (I2C_GetITStatus(I2C2, I2C_IT_ARLO)) 
  26:	480a      	ldr	r0, [pc, #40]	; (50 <I2C2_ER_IRQHandler+0x50>)
  28:	490c      	ldr	r1, [pc, #48]	; (5c <I2C2_ER_IRQHandler+0x5c>)
  2a:	f7ff fffe 	bl	0 <I2C_GetITStatus>
  2e:	b118      	cbz	r0, 38 <I2C2_ER_IRQHandler+0x38>
C:\cortex\dimmers\src/stm32f10x_it.c:948
  {
    I2C_ClearITPendingBit(I2C2, I2C_IT_ARLO);
  30:	4807      	ldr	r0, [pc, #28]	; (50 <I2C2_ER_IRQHandler+0x50>)
  32:	490a      	ldr	r1, [pc, #40]	; (5c <I2C2_ER_IRQHandler+0x5c>)
  34:	f7ff fffe 	bl	0 <I2C_ClearITPendingBit>
C:\cortex\dimmers\src/stm32f10x_it.c:950
  }
  if (I2C_GetITStatus(I2C2, I2C_IT_OVR)) 
  38:	4805      	ldr	r0, [pc, #20]	; (50 <I2C2_ER_IRQHandler+0x50>)
  3a:	4909      	ldr	r1, [pc, #36]	; (60 <I2C2_ER_IRQHandler+0x60>)
  3c:	f7ff fffe 	bl	0 <I2C_GetITStatus>
  40:	b128      	cbz	r0, 4e <I2C2_ER_IRQHandler+0x4e>
C:\cortex\dimmers\src/stm32f10x_it.c:952
  {
    I2C_ClearITPendingBit(I2C2, I2C_IT_OVR);
  42:	4803      	ldr	r0, [pc, #12]	; (50 <I2C2_ER_IRQHandler+0x50>)
  44:	4906      	ldr	r1, [pc, #24]	; (60 <I2C2_ER_IRQHandler+0x60>)
C:\cortex\dimmers\src/stm32f10x_it.c:954
  }
}
  46:	e8bd 4010 	ldmia.w	sp!, {r4, lr}
C:\cortex\dimmers\src/stm32f10x_it.c:952
  {
    I2C_ClearITPendingBit(I2C2, I2C_IT_ARLO);
  }
  if (I2C_GetITStatus(I2C2, I2C_IT_OVR)) 
  {
    I2C_ClearITPendingBit(I2C2, I2C_IT_OVR);
  4a:	f7ff bffe 	b.w	0 <I2C_ClearITPendingBit>
  4e:	bd10      	pop	{r4, pc}
  50:	40005800 	.word	0x40005800
  54:	01000400 	.word	0x01000400
  58:	01000100 	.word	0x01000100
  5c:	01000200 	.word	0x01000200
  60:	01000800 	.word	0x01000800

Disassembly of section .text.SPI1_IRQHandler:

00000000 <SPI1_IRQHandler>:
SPI1_IRQHandler():
C:\cortex\dimmers\src/stm32f10x_it.c:965
* Output         : None
* Return         : None
*******************************************************************************/
void SPI1_IRQHandler(void)
{
}
   0:	4770      	bx	lr

Disassembly of section .text.SPI2_IRQHandler:

00000000 <SPI2_IRQHandler>:
SPI2_IRQHandler():
C:\cortex\dimmers\src/stm32f10x_it.c:976
* Output         : None
* Return         : None
*******************************************************************************/
void SPI2_IRQHandler(void)
{
}
   0:	4770      	bx	lr

Disassembly of section .text.USART1_IRQHandler:

00000000 <USART1_IRQHandler>:
USART1_IRQHandler():
C:\cortex\dimmers\src/stm32f10x_it.c:987
* Output         : None
* Return         : None
*******************************************************************************/
void USART1_IRQHandler(void)
{
}
   0:	4770      	bx	lr

Disassembly of section .text.USART2_IRQHandler:

00000000 <USART2_IRQHandler>:
USART2_IRQHandler():
C:\cortex\dimmers\src/stm32f10x_it.c:998
* Output         : None
* Return         : None
*******************************************************************************/
void USART2_IRQHandler(void)
{
}
   0:	4770      	bx	lr

Disassembly of section .text.USART3_IRQHandler:

00000000 <USART3_IRQHandler>:
USART3_IRQHandler():
C:\cortex\dimmers\src/stm32f10x_it.c:1009
* Output         : None
* Return         : None
*******************************************************************************/
void USART3_IRQHandler(void)
{
}
   0:	4770      	bx	lr

Disassembly of section .text.EXTI15_10_IRQHandler:

00000000 <EXTI15_10_IRQHandler>:
EXTI15_10_IRQHandler():
C:\cortex\dimmers\src/stm32f10x_it.c:1019
* Input          : None
* Output         : None
* Return         : None
*******************************************************************************/
void EXTI15_10_IRQHandler(void)
{
   0:	b570      	push	{r4, r5, r6, lr}
C:\cortex\dimmers\src/stm32f10x_it.c:1021
    static portBASE_TYPE xFromHigher;
    xFromHigher = pdFALSE;
   2:	4c1f      	ldr	r4, [pc, #124]	; (80 <EXTI15_10_IRQHandler+0x80>)
   4:	2500      	movs	r5, #0
C:\cortex\dimmers\src/stm32f10x_it.c:1023

    if(EXTI_GetITStatus(EXTI_BUTTON_5) != RESET)
   6:	f44f 6080 	mov.w	r0, #1024	; 0x400
C:\cortex\dimmers\src/stm32f10x_it.c:1021
* Return         : None
*******************************************************************************/
void EXTI15_10_IRQHandler(void)
{
    static portBASE_TYPE xFromHigher;
    xFromHigher = pdFALSE;
   a:	6225      	str	r5, [r4, #32]
C:\cortex\dimmers\src/stm32f10x_it.c:1023

    if(EXTI_GetITStatus(EXTI_BUTTON_5) != RESET)
   c:	f7ff fffe 	bl	0 <EXTI_GetITStatus>
  10:	b1b8      	cbz	r0, 32 <xTaskGetSchedulerState+0x32>
C:\cortex\dimmers\src/stm32f10x_it.c:1025
    {
        if ( xTaskGetSchedulerState() == taskSCHEDULER_RUNNING )
  12:	f7ff fffe 	bl	0 <xTaskGetSchedulerState>
  16:	2801      	cmp	r0, #1
  18:	d107      	bne.n	2a <EXTI15_10_IRQHandler+0x2a>
C:\cortex\dimmers\src/stm32f10x_it.c:1026
            xSemaphoreGiveFromISR ( xSemaphoreButtonArrayHandle[4] , &xFromHigher );
  1a:	4b1a      	ldr	r3, [pc, #104]	; (84 <EXTI15_10_IRQHandler+0x84>)
  1c:	4629      	mov	r1, r5
  1e:	6918      	ldr	r0, [r3, #16]
  20:	f104 0220 	add.w	r2, r4, #32
  24:	462b      	mov	r3, r5
  26:	f7ff fffe 	bl	0 <xQueueGenericSendFromISR>
C:\cortex\dimmers\src/stm32f10x_it.c:1028
    
        if ( xFromHigher == pdTRUE ){
  2a:	6a23      	ldr	r3, [r4, #32]
  2c:	2b01      	cmp	r3, #1
  2e:	d104      	bne.n	3a <EXTI15_10_IRQHandler+0x3a>
C:\cortex\dimmers\src/stm32f10x_it.c:1029
            vPortYieldFromISR();
  30:	f7ff fffe 	bl	0 <vPortYieldFromISR>
C:\cortex\dimmers\src/stm32f10x_it.c:1030
            xFromHigher = pdFALSE;
  34:	4b12      	ldr	r3, [pc, #72]	; (80 <EXTI15_10_IRQHandler+0x80>)
  36:	2200      	movs	r2, #0
  38:	621a      	str	r2, [r3, #32]
C:\cortex\dimmers\src/stm32f10x_it.c:1033
        }

        EXTI_ClearITPendingBit(EXTI_Line10);
  3a:	f44f 6080 	mov.w	r0, #1024	; 0x400
  3e:	f7ff fffe 	bl	0 <EXTI_ClearITPendingBit>
C:\cortex\dimmers\src/stm32f10x_it.c:1036
    }

    if(EXTI_GetITStatus(EXTI_BUTTON_6) != RESET)
  42:	f44f 6000 	mov.w	r0, #2048	; 0x800
  46:	f7ff fffe 	bl	0 <EXTI_GetITStatus>
  4a:	b1c0      	cbz	r0, 34 <xTaskGetSchedulerState+0x34>
C:\cortex\dimmers\src/stm32f10x_it.c:1038
    {
        if ( xTaskGetSchedulerState() == taskSCHEDULER_RUNNING )
  4c:	f7ff fffe 	bl	0 <xTaskGetSchedulerState>
  50:	2801      	cmp	r0, #1
  52:	d106      	bne.n	62 <EXTI15_10_IRQHandler+0x62>
C:\cortex\dimmers\src/stm32f10x_it.c:1039
            xSemaphoreGiveFromISR ( xSemaphoreButtonArrayHandle[5] , &xFromHigher );
  54:	4b0b      	ldr	r3, [pc, #44]	; (84 <EXTI15_10_IRQHandler+0x84>)
  56:	2100      	movs	r1, #0
  58:	6958      	ldr	r0, [r3, #20]
  5a:	4a0b      	ldr	r2, [pc, #44]	; (88 <EXTI15_10_IRQHandler+0x88>)
  5c:	460b      	mov	r3, r1
  5e:	f7ff fffe 	bl	0 <xQueueGenericSendFromISR>
C:\cortex\dimmers\src/stm32f10x_it.c:1041

        if ( xFromHigher == pdTRUE ){
  62:	6a23      	ldr	r3, [r4, #32]
  64:	2b01      	cmp	r3, #1
  66:	d104      	bne.n	72 <EXTI15_10_IRQHandler+0x72>
C:\cortex\dimmers\src/stm32f10x_it.c:1042
            vPortYieldFromISR();
  68:	f7ff fffe 	bl	0 <vPortYieldFromISR>
C:\cortex\dimmers\src/stm32f10x_it.c:1043
            xFromHigher = pdFALSE;
  6c:	4b04      	ldr	r3, [pc, #16]	; (80 <EXTI15_10_IRQHandler+0x80>)
  6e:	2200      	movs	r2, #0
  70:	621a      	str	r2, [r3, #32]
C:\cortex\dimmers\src/stm32f10x_it.c:1046
        }

        EXTI_ClearITPendingBit(EXTI_Line11);
  72:	f44f 6000 	mov.w	r0, #2048	; 0x800
C:\cortex\dimmers\src/stm32f10x_it.c:1048
    }
}
  76:	e8bd 4070 	ldmia.w	sp!, {r4, r5, r6, lr}
C:\cortex\dimmers\src/stm32f10x_it.c:1046
        if ( xFromHigher == pdTRUE ){
            vPortYieldFromISR();
            xFromHigher = pdFALSE;
        }

        EXTI_ClearITPendingBit(EXTI_Line11);
  7a:	f7ff bffe 	b.w	0 <EXTI_ClearITPendingBit>
  7e:	bd70      	pop	{r4, r5, r6, pc}
	...
  88:	00000020 	.word	0x00000020

Disassembly of section .text.RTCAlarm_IRQHandler:

00000000 <RTCAlarm_IRQHandler>:
RTCAlarm_IRQHandler():
C:\cortex\dimmers\src/stm32f10x_it.c:1059
* Output         : None
* Return         : None
*******************************************************************************/
void RTCAlarm_IRQHandler(void)
{
}
   0:	4770      	bx	lr

Disassembly of section .text.USBWakeUp_IRQHandler:

00000000 <USBWakeUp_IRQHandler>:
USBWakeUp_IRQHandler():
C:\cortex\dimmers\src/stm32f10x_it.c:1070
* Output         : None
* Return         : None
*******************************************************************************/
void USBWakeUp_IRQHandler(void)
{
}
   0:	4770      	bx	lr

Disassembly of section .text.TIM8_BRK_IRQHandler:

00000000 <TIM8_BRK_IRQHandler>:
TIM8_BRK_IRQHandler():
C:\cortex\dimmers\src/stm32f10x_it.c:1081
* Output         : None
* Return         : None
*******************************************************************************/
void TIM8_BRK_IRQHandler(void)
{
}
   0:	4770      	bx	lr

Disassembly of section .text.TIM8_UP_IRQHandler:

00000000 <TIM8_UP_IRQHandler>:
TIM8_UP_IRQHandler():
C:\cortex\dimmers\src/stm32f10x_it.c:1093
* Output         : None
* Return         : None
*******************************************************************************/
void TIM8_UP_IRQHandler(void)
{
}
   0:	4770      	bx	lr

Disassembly of section .text.TIM8_TRG_COM_IRQHandler:

00000000 <TIM8_TRG_COM_IRQHandler>:
TIM8_TRG_COM_IRQHandler():
C:\cortex\dimmers\src/stm32f10x_it.c:1105
* Output         : None
* Return         : None
*******************************************************************************/
void TIM8_TRG_COM_IRQHandler(void)
{
}
   0:	4770      	bx	lr

Disassembly of section .text.TIM8_CC_IRQHandler:

00000000 <TIM8_CC_IRQHandler>:
TIM8_CC_IRQHandler():
C:\cortex\dimmers\src/stm32f10x_it.c:1116
* Output         : None
* Return         : None
*******************************************************************************/
void TIM8_CC_IRQHandler(void)
{
}
   0:	4770      	bx	lr

Disassembly of section .text.ADC3_IRQHandler:

00000000 <ADC3_IRQHandler>:
ADC3_IRQHandler():
C:\cortex\dimmers\src/stm32f10x_it.c:1150
*
* - boolean introduced to avoid multiple zero samples resetting the timer
*
*******************************************************************************/
void ADC3_IRQHandler(void)
{
   0:	b570      	push	{r4, r5, r6, lr}
C:\cortex\dimmers\src/stm32f10x_it.c:1154

    static bool tim = FALSE;
   
    ADC_ClearITPendingBit(ADC3, ADC_IT_EOC);
   2:	482c      	ldr	r0, [pc, #176]	; (b4 <ADC3_IRQHandler+0xb4>)
   4:	f44f 7108 	mov.w	r1, #544	; 0x220
   8:	f7ff fffe 	bl	0 <ADC_ClearITPendingBit>
C:\cortex\dimmers\src/stm32f10x_it.c:1155
    Xi[0] = ZeroCross;
   c:	4b2a      	ldr	r3, [pc, #168]	; (b8 <ADC3_IRQHandler+0xb8>)
   e:	4c2b      	ldr	r4, [pc, #172]	; (bc <ADC3_IRQHandler+0xbc>)
  10:	881b      	ldrh	r3, [r3, #0]
C:\cortex\dimmers\src/stm32f10x_it.c:1157
    fir_16by16_stm32(Yi , Xi , &co , 4);
    Yi[0] >>= 15;
  12:	4d2b      	ldr	r5, [pc, #172]	; (c0 <ADC3_IRQHandler+0xc0>)
C:\cortex\dimmers\src/stm32f10x_it.c:1155
{

    static bool tim = FALSE;
   
    ADC_ClearITPendingBit(ADC3, ADC_IT_EOC);
    Xi[0] = ZeroCross;
  14:	8023      	strh	r3, [r4, #0]
C:\cortex\dimmers\src/stm32f10x_it.c:1156
    fir_16by16_stm32(Yi , Xi , &co , 4);
  16:	482a      	ldr	r0, [pc, #168]	; (c0 <ADC3_IRQHandler+0xc0>)
  18:	2304      	movs	r3, #4
  1a:	4621      	mov	r1, r4
  1c:	4a29      	ldr	r2, [pc, #164]	; (c4 <ADC3_IRQHandler+0xc4>)
  1e:	f7ff fffe 	bl	0 <fir_16by16_stm32>
C:\cortex\dimmers\src/stm32f10x_it.c:1157
    Yi[0] >>= 15;
  22:	682b      	ldr	r3, [r5, #0]
C:\cortex\dimmers\src/stm32f10x_it.c:1159
    
    if ( TIM_GetCounter(TIM2) > TIM_CHECK_ON_HALF )
  24:	f04f 4080 	mov.w	r0, #1073741824	; 0x40000000
C:\cortex\dimmers\src/stm32f10x_it.c:1157
    static bool tim = FALSE;
   
    ADC_ClearITPendingBit(ADC3, ADC_IT_EOC);
    Xi[0] = ZeroCross;
    fir_16by16_stm32(Yi , Xi , &co , 4);
    Yi[0] >>= 15;
  28:	13db      	asrs	r3, r3, #15
  2a:	602b      	str	r3, [r5, #0]
C:\cortex\dimmers\src/stm32f10x_it.c:1159
    
    if ( TIM_GetCounter(TIM2) > TIM_CHECK_ON_HALF )
  2c:	f7ff fffe 	bl	0 <TIM_GetCounter>
  30:	f241 3388 	movw	r3, #5000	; 0x1388
  34:	4298      	cmp	r0, r3
  36:	d903      	bls.n	40 <ADC3_IRQHandler+0x40>
C:\cortex\dimmers\src/stm32f10x_it.c:1160
        tim = TRUE;
  38:	4b23      	ldr	r3, [pc, #140]	; (c8 <ADC3_IRQHandler+0xc8>)
  3a:	2201      	movs	r2, #1
  3c:	f883 2024 	strb.w	r2, [r3, #36]	; 0x24
C:\cortex\dimmers\src/stm32f10x_it.c:1162

    if (    (Yi[0] < ( theZero + ADC_LEVEL_DIF )) 
  40:	682b      	ldr	r3, [r5, #0]
  42:	4d22      	ldr	r5, [pc, #136]	; (cc <ADC3_IRQHandler+0xcc>)
  44:	f9b5 2000 	ldrsh.w	r2, [r5]
  48:	f102 0108 	add.w	r1, r2, #8
  4c:	428b      	cmp	r3, r1
  4e:	da0b      	bge.n	68 <ADC3_IRQHandler+0x68>
C:\cortex\dimmers\src/stm32f10x_it.c:1163
        &&  (Yi[0] > ( theZero - ADC_LEVEL_DIF )) ) 
  50:	3a08      	subs	r2, #8
  52:	4293      	cmp	r3, r2
  54:	dd08      	ble.n	68 <ADC3_IRQHandler+0x68>
C:\cortex\dimmers\src/stm32f10x_it.c:1165
    {
        if ( tim ) TimResetAll();
  56:	4e1c      	ldr	r6, [pc, #112]	; (c8 <ADC3_IRQHandler+0xc8>)
  58:	f896 3024 	ldrb.w	r3, [r6, #36]	; 0x24
  5c:	b10b      	cbz	r3, 6 <TimResetAll+0x6>
  5e:	f7ff fffe 	bl	0 <TimResetAll>
C:\cortex\dimmers\src/stm32f10x_it.c:1166
        tim = FALSE;
  62:	2300      	movs	r3, #0
  64:	f886 3024 	strb.w	r3, [r6, #36]	; 0x24
C:\cortex\dimmers\src/stm32f10x_it.c:1169
    }

    mem_shift(Xi,68);
  68:	2144      	movs	r1, #68	; 0x44
  6a:	4814      	ldr	r0, [pc, #80]	; (bc <ADC3_IRQHandler+0xbc>)
  6c:	f7ff fffe 	bl	0 <mem_shift>
C:\cortex\dimmers\src/stm32f10x_it.c:1171

    if (counterMinMax++ <= SAMPLES_MIN_MAX )
  70:	4a17      	ldr	r2, [pc, #92]	; (d0 <ADC3_IRQHandler+0xd0>)
  72:	8813      	ldrh	r3, [r2, #0]
  74:	1c59      	adds	r1, r3, #1
  76:	8011      	strh	r1, [r2, #0]
  78:	f649 4240 	movw	r2, #40000	; 0x9c40
  7c:	4293      	cmp	r3, r2
  7e:	d817      	bhi.n	b0 <ADC3_IRQHandler+0xb0>
C:\cortex\dimmers\src/stm32f10x_it.c:1173
    {
        if (Xi[0] > theMax ) theMax = Xi[0];
  80:	4a14      	ldr	r2, [pc, #80]	; (d4 <ADC3_IRQHandler+0xd4>)
  82:	8823      	ldrh	r3, [r4, #0]
  84:	f9b2 1000 	ldrsh.w	r1, [r2]
  88:	b218      	sxth	r0, r3
  8a:	4281      	cmp	r1, r0
C:\cortex\dimmers\src/stm32f10x_it.c:1174
        if (Xi[0] < theMin ) theMin = Xi[0];
  8c:	4912      	ldr	r1, [pc, #72]	; (d8 <ADC3_IRQHandler+0xd8>)
C:\cortex\dimmers\src/stm32f10x_it.c:1173

    mem_shift(Xi,68);

    if (counterMinMax++ <= SAMPLES_MIN_MAX )
    {
        if (Xi[0] > theMax ) theMax = Xi[0];
  8e:	bfb8      	it	lt
  90:	8013      	strhlt	r3, [r2, #0]
C:\cortex\dimmers\src/stm32f10x_it.c:1174
        if (Xi[0] < theMin ) theMin = Xi[0];
  92:	f9b1 4000 	ldrsh.w	r4, [r1]
  96:	4284      	cmp	r4, r0
  98:	bfc8      	it	gt
  9a:	800b      	strhgt	r3, [r1, #0]
C:\cortex\dimmers\src/stm32f10x_it.c:1175
        theZero = (theMax - theMin)/2 + theMin;
  9c:	880b      	ldrh	r3, [r1, #0]
  9e:	f9b2 1000 	ldrsh.w	r1, [r2]
  a2:	b21a      	sxth	r2, r3
  a4:	1a8a      	subs	r2, r1, r2
  a6:	eb02 72d2 	add.w	r2, r2, r2, lsr #31
  aa:	eb03 0362 	add.w	r3, r3, r2, asr #1
  ae:	802b      	strh	r3, [r5, #0]
  b0:	bd70      	pop	{r4, r5, r6, pc}
  b2:	bf00      	nop
  b4:	40013c00 	.word	0x40013c00
	...

Disassembly of section .text.FSMC_IRQHandler:

00000000 <FSMC_IRQHandler>:
FSMC_IRQHandler():
C:\cortex\dimmers\src/stm32f10x_it.c:1189
* Output         : None
* Return         : None
*******************************************************************************/
void FSMC_IRQHandler(void)
{
}
   0:	4770      	bx	lr

Disassembly of section .text.SDIO_IRQHandler:

00000000 <SDIO_IRQHandler>:
SDIO_IRQHandler():
C:\cortex\dimmers\src/stm32f10x_it.c:1200
* Output         : None
* Return         : None
*******************************************************************************/
void SDIO_IRQHandler(void)
{
}
   0:	4770      	bx	lr

Disassembly of section .text.TIM5_IRQHandler:

00000000 <TIM5_IRQHandler>:
TIM5_IRQHandler():
C:\cortex\dimmers\src/stm32f10x_it.c:1211
* Output         : None
* Return         : None
*******************************************************************************/
void TIM5_IRQHandler(void)
{
}
   0:	4770      	bx	lr

Disassembly of section .text.SPI3_IRQHandler:

00000000 <SPI3_IRQHandler>:
SPI3_IRQHandler():
C:\cortex\dimmers\src/stm32f10x_it.c:1222
* Output         : None
* Return         : None
*******************************************************************************/
void SPI3_IRQHandler(void)
{
}
   0:	4770      	bx	lr

Disassembly of section .text.UART4_IRQHandler:

00000000 <UART4_IRQHandler>:
UART4_IRQHandler():
C:\cortex\dimmers\src/stm32f10x_it.c:1233
* Output         : None
* Return         : None
*******************************************************************************/
void UART4_IRQHandler(void)
{
}
   0:	4770      	bx	lr

Disassembly of section .text.UART5_IRQHandler:

00000000 <UART5_IRQHandler>:
UART5_IRQHandler():
C:\cortex\dimmers\src/stm32f10x_it.c:1244
* Output         : None
* Return         : None
*******************************************************************************/
void UART5_IRQHandler(void)
{
}
   0:	4770      	bx	lr

Disassembly of section .text.TIM6_IRQHandler:

00000000 <TIM6_IRQHandler>:
TIM6_IRQHandler():
C:\cortex\dimmers\src/stm32f10x_it.c:1255
* Output         : None
* Return         : None
*******************************************************************************/
void TIM6_IRQHandler(void)
{
}
   0:	4770      	bx	lr

Disassembly of section .text.TIM7_IRQHandler:

00000000 <TIM7_IRQHandler>:
TIM7_IRQHandler():
C:\cortex\dimmers\src/stm32f10x_it.c:1266
* Output         : None
* Return         : None
*******************************************************************************/
void TIM7_IRQHandler(void)
{
}
   0:	4770      	bx	lr

Disassembly of section .text.DMA2_Channel1_IRQHandler:

00000000 <DMA2_Channel1_IRQHandler>:
DMA2_Channel1_IRQHandler():
C:\cortex\dimmers\src/stm32f10x_it.c:1277
* Output         : None
* Return         : None
*******************************************************************************/
void DMA2_Channel1_IRQHandler(void)
{
}
   0:	4770      	bx	lr

Disassembly of section .text.DMA2_Channel2_IRQHandler:

00000000 <DMA2_Channel2_IRQHandler>:
DMA2_Channel2_IRQHandler():
C:\cortex\dimmers\src/stm32f10x_it.c:1288
* Output         : None
* Return         : None
*******************************************************************************/
void DMA2_Channel2_IRQHandler(void)
{
}
   0:	4770      	bx	lr

Disassembly of section .text.DMA2_Channel3_IRQHandler:

00000000 <DMA2_Channel3_IRQHandler>:
DMA2_Channel3_IRQHandler():
C:\cortex\dimmers\src/stm32f10x_it.c:1299
* Output         : None
* Return         : None
*******************************************************************************/
void DMA2_Channel3_IRQHandler(void)
{
}
   0:	4770      	bx	lr

Disassembly of section .text.DMA2_Channel4_5_IRQHandler:

00000000 <DMA2_Channel4_5_IRQHandler>:
DMA2_Channel4_5_IRQHandler():
C:\cortex\dimmers\src/stm32f10x_it.c:1311
* Output         : None
* Return         : None
*******************************************************************************/
void DMA2_Channel4_5_IRQHandler(void)
{
}
   0:	4770      	bx	lr
