
C:\cortex\dimmers\hex\dimmers_tim.o:     file format elf32-littlearm
C:\cortex\dimmers\hex\dimmers_tim.o


Disassembly of section .text.SetTimIntCompare6:

00000000 <SetTimIntCompare6>:
SetTimIntCompare6():
C:\cortex\dimmers\src/dimmers_tim.c:278

void SetTimIntCompare5 ( FunctionalState NewState ){
    TIM_ITConfig( TIM4 , TIM_IT_CC1 | TIM_IT_CC2 , NewState );
}

void SetTimIntCompare6 ( FunctionalState NewState ){
   0:	4602      	mov	r2, r0
C:\cortex\dimmers\src/dimmers_tim.c:279
    TIM_ITConfig( TIM4 , TIM_IT_CC3 | TIM_IT_CC4 , NewState );
   2:	4802      	ldr	r0, [pc, #8]	; (c <SetTimIntCompare6+0xc>)
   4:	2118      	movs	r1, #24
   6:	f7ff bffe 	b.w	0 <TIM_ITConfig>
   a:	bf00      	nop
   c:	40000800 	.word	0x40000800

Disassembly of section .text.SetTimIntCompare5:

00000000 <SetTimIntCompare5>:
SetTimIntCompare5():
C:\cortex\dimmers\src/dimmers_tim.c:274

void SetTimIntCompare4 ( FunctionalState NewState ){
    TIM_ITConfig( TIM3 , TIM_IT_CC3 | TIM_IT_CC4 , NewState );
}

void SetTimIntCompare5 ( FunctionalState NewState ){
   0:	4602      	mov	r2, r0
C:\cortex\dimmers\src/dimmers_tim.c:275
    TIM_ITConfig( TIM4 , TIM_IT_CC1 | TIM_IT_CC2 , NewState );
   2:	4802      	ldr	r0, [pc, #8]	; (c <SetTimIntCompare5+0xc>)
   4:	2106      	movs	r1, #6
   6:	f7ff bffe 	b.w	0 <TIM_ITConfig>
   a:	bf00      	nop
   c:	40000800 	.word	0x40000800

Disassembly of section .text.SetTimIntCompare4:

00000000 <SetTimIntCompare4>:
SetTimIntCompare4():
C:\cortex\dimmers\src/dimmers_tim.c:270

void SetTimIntCompare3 ( FunctionalState NewState ){
    TIM_ITConfig( TIM3 , TIM_IT_CC1 | TIM_IT_CC2 , NewState );
}

void SetTimIntCompare4 ( FunctionalState NewState ){
   0:	4602      	mov	r2, r0
C:\cortex\dimmers\src/dimmers_tim.c:271
    TIM_ITConfig( TIM3 , TIM_IT_CC3 | TIM_IT_CC4 , NewState );
   2:	4802      	ldr	r0, [pc, #8]	; (c <SetTimIntCompare4+0xc>)
   4:	2118      	movs	r1, #24
   6:	f7ff bffe 	b.w	0 <TIM_ITConfig>
   a:	bf00      	nop
   c:	40000400 	.word	0x40000400

Disassembly of section .text.SetTimIntCompare3:

00000000 <SetTimIntCompare3>:
SetTimIntCompare3():
C:\cortex\dimmers\src/dimmers_tim.c:266

void SetTimIntCompare2 ( FunctionalState NewState ){
    TIM_ITConfig( TIM2 , TIM_IT_CC3 | TIM_IT_CC4 , NewState );
}

void SetTimIntCompare3 ( FunctionalState NewState ){
   0:	4602      	mov	r2, r0
C:\cortex\dimmers\src/dimmers_tim.c:267
    TIM_ITConfig( TIM3 , TIM_IT_CC1 | TIM_IT_CC2 , NewState );
   2:	4802      	ldr	r0, [pc, #8]	; (c <SetTimIntCompare3+0xc>)
   4:	2106      	movs	r1, #6
   6:	f7ff bffe 	b.w	0 <TIM_ITConfig>
   a:	bf00      	nop
   c:	40000400 	.word	0x40000400

Disassembly of section .text.SetTimIntCompare2:

00000000 <SetTimIntCompare2>:
SetTimIntCompare2():
C:\cortex\dimmers\src/dimmers_tim.c:262

void SetTimIntCompare1 ( FunctionalState NewState ){
    TIM_ITConfig( TIM2 , TIM_IT_CC1 | TIM_IT_CC2 , NewState );
}

void SetTimIntCompare2 ( FunctionalState NewState ){
   0:	4602      	mov	r2, r0
C:\cortex\dimmers\src/dimmers_tim.c:263
    TIM_ITConfig( TIM2 , TIM_IT_CC3 | TIM_IT_CC4 , NewState );
   2:	2118      	movs	r1, #24
   4:	f04f 4080 	mov.w	r0, #1073741824	; 0x40000000
   8:	f7ff bffe 	b.w	0 <TIM_ITConfig>

Disassembly of section .text.SetTimIntCompare1:

00000000 <SetTimIntCompare1>:
SetTimIntCompare1():
C:\cortex\dimmers\src/dimmers_tim.c:258
    TIM_ITConfig(TIM2, TIM_IT_CC1 | TIM_IT_CC2 | TIM_IT_CC3 | TIM_IT_CC4, DISABLE);
    TIM_ITConfig(TIM3, TIM_IT_CC1 | TIM_IT_CC2 | TIM_IT_CC3 | TIM_IT_CC4, DISABLE);
    TIM_ITConfig(TIM4, TIM_IT_CC1 | TIM_IT_CC2 | TIM_IT_CC3 | TIM_IT_CC4, DISABLE);
}

void SetTimIntCompare1 ( FunctionalState NewState ){
   0:	4602      	mov	r2, r0
C:\cortex\dimmers\src/dimmers_tim.c:259
    TIM_ITConfig( TIM2 , TIM_IT_CC1 | TIM_IT_CC2 , NewState );
   2:	2106      	movs	r1, #6
   4:	f04f 4080 	mov.w	r0, #1073741824	; 0x40000000
   8:	f7ff bffe 	b.w	0 <TIM_ITConfig>

Disassembly of section .text.TimSetClockTimer1:

00000000 <TimSetClockTimer1>:
TimSetClockTimer1():
C:\cortex\dimmers\src/dimmers_tim.c:19
#include "dimmers_tim.h"
#include "dimmers_bkp.h"
#include "math.h"

void TimSetClockTimer1 (void){
    RCC_APB2PeriphClockCmd(RCC_APB2Periph_TIM1,ENABLE);
   0:	f44f 6000 	mov.w	r0, #2048	; 0x800
   4:	2101      	movs	r1, #1
   6:	f7ff bffe 	b.w	0 <RCC_APB2PeriphClockCmd>

Disassembly of section .text.TimSetClockTimer2:

00000000 <TimSetClockTimer2>:
TimSetClockTimer2():
C:\cortex\dimmers\src/dimmers_tim.c:22
}
void TimSetClockTimer2 (void){
    RCC_APB1PeriphClockCmd(RCC_APB1Periph_TIM2, ENABLE);
   0:	2001      	movs	r0, #1
   2:	4601      	mov	r1, r0
   4:	f7ff bffe 	b.w	0 <RCC_APB1PeriphClockCmd>

Disassembly of section .text.TimSetClockTimer3:

00000000 <TimSetClockTimer3>:
TimSetClockTimer3():
C:\cortex\dimmers\src/dimmers_tim.c:25
}
void TimSetClockTimer3 (void){
    RCC_APB1PeriphClockCmd(RCC_APB1Periph_TIM3, ENABLE);
   0:	2002      	movs	r0, #2
   2:	2101      	movs	r1, #1
   4:	f7ff bffe 	b.w	0 <RCC_APB1PeriphClockCmd>

Disassembly of section .text.TimSetClockTimer4:

00000000 <TimSetClockTimer4>:
TimSetClockTimer4():
C:\cortex\dimmers\src/dimmers_tim.c:28
}
void TimSetClockTimer4 (void){
    RCC_APB1PeriphClockCmd(RCC_APB1Periph_TIM4, ENABLE);
   0:	2004      	movs	r0, #4
   2:	2101      	movs	r1, #1
   4:	f7ff bffe 	b.w	0 <RCC_APB1PeriphClockCmd>

Disassembly of section .text.TimSetClockTimer5:

00000000 <TimSetClockTimer5>:
TimSetClockTimer5():
C:\cortex\dimmers\src/dimmers_tim.c:32
}
void TimSetClockTimer5 (void){
    //not used
}
   0:	4770      	bx	lr

Disassembly of section .text.TimSetClockTimer6:

00000000 <TimSetClockTimer6>:
TimSetClockTimer6():
C:\cortex\dimmers\src/dimmers_tim.c:35
void TimSetClockTimer6 (void){
    //not used
}
   0:	4770      	bx	lr

Disassembly of section .text.TimSetClockTimer7:

00000000 <TimSetClockTimer7>:
TimSetClockTimer7():
C:\cortex\dimmers\src/dimmers_tim.c:38
void TimSetClockTimer7 (void){
    //not used
}
   0:	4770      	bx	lr

Disassembly of section .text.TimSetClockTimer8:

00000000 <TimSetClockTimer8>:
TimSetClockTimer8():
C:\cortex\dimmers\src/dimmers_tim.c:41
void TimSetClockTimer8 (void){
    //not used
}
   0:	4770      	bx	lr

Disassembly of section .text.TimSetConfigTimer1:

00000000 <TimSetConfigTimer1>:
TimSetConfigTimer1():
C:\cortex\dimmers\src/dimmers_tim.c:43

void TimSetConfigTimer1 ( u32 period ){
   0:	b51f      	push	{r0, r1, r2, r3, r4, lr}
   2:	4604      	mov	r4, r0
C:\cortex\dimmers\src/dimmers_tim.c:47

    TIM_TimeBaseInitTypeDef   	TIM_TimeBaseStructure;    

    TIM_TimeBaseStructInit(&TIM_TimeBaseStructure); 
   4:	a801      	add	r0, sp, #4
   6:	f7ff fffe 	bl	0 <TIM_TimeBaseStructInit>
C:\cortex\dimmers\src/dimmers_tim.c:49
    TIM_TimeBaseStructure.TIM_Period		= period;
    TIM_TimeBaseStructure.TIM_Prescaler		= TIM_PRESCALE_1_MICRO;
   a:	2348      	movs	r3, #72	; 0x48
   c:	f8ad 3004 	strh.w	r3, [sp, #4]
C:\cortex\dimmers\src/dimmers_tim.c:52
    TIM_TimeBaseStructure.TIM_ClockDivision	= 0;
    TIM_TimeBaseStructure.TIM_CounterMode	= TIM_CounterMode_Up;
    TIM_TimeBaseInit(TIM1, &TIM_TimeBaseStructure);
  10:	4805      	ldr	r0, [pc, #20]	; (28 <TimSetConfigTimer1+0x28>)
C:\cortex\dimmers\src/dimmers_tim.c:50
    TIM_TimeBaseInitTypeDef   	TIM_TimeBaseStructure;    

    TIM_TimeBaseStructInit(&TIM_TimeBaseStructure); 
    TIM_TimeBaseStructure.TIM_Period		= period;
    TIM_TimeBaseStructure.TIM_Prescaler		= TIM_PRESCALE_1_MICRO;
    TIM_TimeBaseStructure.TIM_ClockDivision	= 0;
  12:	2300      	movs	r3, #0
C:\cortex\dimmers\src/dimmers_tim.c:52
    TIM_TimeBaseStructure.TIM_CounterMode	= TIM_CounterMode_Up;
    TIM_TimeBaseInit(TIM1, &TIM_TimeBaseStructure);
  14:	a901      	add	r1, sp, #4
C:\cortex\dimmers\src/dimmers_tim.c:48
void TimSetConfigTimer1 ( u32 period ){

    TIM_TimeBaseInitTypeDef   	TIM_TimeBaseStructure;    

    TIM_TimeBaseStructInit(&TIM_TimeBaseStructure); 
    TIM_TimeBaseStructure.TIM_Period		= period;
  16:	f8ad 4008 	strh.w	r4, [sp, #8]
C:\cortex\dimmers\src/dimmers_tim.c:50
    TIM_TimeBaseStructure.TIM_Prescaler		= TIM_PRESCALE_1_MICRO;
    TIM_TimeBaseStructure.TIM_ClockDivision	= 0;
  1a:	f8ad 300a 	strh.w	r3, [sp, #10]
C:\cortex\dimmers\src/dimmers_tim.c:51
    TIM_TimeBaseStructure.TIM_CounterMode	= TIM_CounterMode_Up;
  1e:	f8ad 3006 	strh.w	r3, [sp, #6]
C:\cortex\dimmers\src/dimmers_tim.c:52
    TIM_TimeBaseInit(TIM1, &TIM_TimeBaseStructure);
  22:	f7ff fffe 	bl	0 <TIM_TimeBaseInit>
C:\cortex\dimmers\src/dimmers_tim.c:53
}
  26:	bd1f      	pop	{r0, r1, r2, r3, r4, pc}
  28:	40012c00 	.word	0x40012c00

Disassembly of section .text.TimSetConfigTimer2:

00000000 <TimSetConfigTimer2>:
TimSetConfigTimer2():
C:\cortex\dimmers\src/dimmers_tim.c:55

void TimSetConfigTimer2 ( u32 period ){
   0:	b51f      	push	{r0, r1, r2, r3, r4, lr}
   2:	4604      	mov	r4, r0
C:\cortex\dimmers\src/dimmers_tim.c:59

    TIM_TimeBaseInitTypeDef   	TIM_TimeBaseStructure;    

    TIM_TimeBaseStructInit(&TIM_TimeBaseStructure); 
   4:	a801      	add	r0, sp, #4
   6:	f7ff fffe 	bl	0 <TIM_TimeBaseStructInit>
C:\cortex\dimmers\src/dimmers_tim.c:61
    TIM_TimeBaseStructure.TIM_Period		= period;
    TIM_TimeBaseStructure.TIM_Prescaler		= TIM_PRESCALE_1_MICRO;
   a:	2348      	movs	r3, #72	; 0x48
   c:	f8ad 3004 	strh.w	r3, [sp, #4]
C:\cortex\dimmers\src/dimmers_tim.c:64
    TIM_TimeBaseStructure.TIM_ClockDivision	= 0;
    TIM_TimeBaseStructure.TIM_CounterMode	= TIM_CounterMode_Up;
    TIM_TimeBaseInit(TIM2, &TIM_TimeBaseStructure);
  10:	f04f 4080 	mov.w	r0, #1073741824	; 0x40000000
C:\cortex\dimmers\src/dimmers_tim.c:62
    TIM_TimeBaseInitTypeDef   	TIM_TimeBaseStructure;    

    TIM_TimeBaseStructInit(&TIM_TimeBaseStructure); 
    TIM_TimeBaseStructure.TIM_Period		= period;
    TIM_TimeBaseStructure.TIM_Prescaler		= TIM_PRESCALE_1_MICRO;
    TIM_TimeBaseStructure.TIM_ClockDivision	= 0;
  14:	2300      	movs	r3, #0
C:\cortex\dimmers\src/dimmers_tim.c:64
    TIM_TimeBaseStructure.TIM_CounterMode	= TIM_CounterMode_Up;
    TIM_TimeBaseInit(TIM2, &TIM_TimeBaseStructure);
  16:	a901      	add	r1, sp, #4
C:\cortex\dimmers\src/dimmers_tim.c:60
void TimSetConfigTimer2 ( u32 period ){

    TIM_TimeBaseInitTypeDef   	TIM_TimeBaseStructure;    

    TIM_TimeBaseStructInit(&TIM_TimeBaseStructure); 
    TIM_TimeBaseStructure.TIM_Period		= period;
  18:	f8ad 4008 	strh.w	r4, [sp, #8]
C:\cortex\dimmers\src/dimmers_tim.c:62
    TIM_TimeBaseStructure.TIM_Prescaler		= TIM_PRESCALE_1_MICRO;
    TIM_TimeBaseStructure.TIM_ClockDivision	= 0;
  1c:	f8ad 300a 	strh.w	r3, [sp, #10]
C:\cortex\dimmers\src/dimmers_tim.c:63
    TIM_TimeBaseStructure.TIM_CounterMode	= TIM_CounterMode_Up;
  20:	f8ad 3006 	strh.w	r3, [sp, #6]
C:\cortex\dimmers\src/dimmers_tim.c:64
    TIM_TimeBaseInit(TIM2, &TIM_TimeBaseStructure);
  24:	f7ff fffe 	bl	0 <TIM_TimeBaseInit>
C:\cortex\dimmers\src/dimmers_tim.c:65
}
  28:	bd1f      	pop	{r0, r1, r2, r3, r4, pc}

Disassembly of section .text.TimSetConfigTimer3:

00000000 <TimSetConfigTimer3>:
TimSetConfigTimer3():
C:\cortex\dimmers\src/dimmers_tim.c:67

void TimSetConfigTimer3 ( u32 period ){
   0:	b51f      	push	{r0, r1, r2, r3, r4, lr}
   2:	4604      	mov	r4, r0
C:\cortex\dimmers\src/dimmers_tim.c:71

    TIM_TimeBaseInitTypeDef   	TIM_TimeBaseStructure;    

    TIM_TimeBaseStructInit(&TIM_TimeBaseStructure); 
   4:	a801      	add	r0, sp, #4
   6:	f7ff fffe 	bl	0 <TIM_TimeBaseStructInit>
C:\cortex\dimmers\src/dimmers_tim.c:73
    TIM_TimeBaseStructure.TIM_Period		= period;
    TIM_TimeBaseStructure.TIM_Prescaler		= TIM_PRESCALE_1_MICRO;
   a:	2348      	movs	r3, #72	; 0x48
   c:	f8ad 3004 	strh.w	r3, [sp, #4]
C:\cortex\dimmers\src/dimmers_tim.c:76
    TIM_TimeBaseStructure.TIM_ClockDivision	= 0;
    TIM_TimeBaseStructure.TIM_CounterMode	= TIM_CounterMode_Up;
    TIM_TimeBaseInit(TIM3, &TIM_TimeBaseStructure);
  10:	4805      	ldr	r0, [pc, #20]	; (28 <TimSetConfigTimer3+0x28>)
C:\cortex\dimmers\src/dimmers_tim.c:74
    TIM_TimeBaseInitTypeDef   	TIM_TimeBaseStructure;    

    TIM_TimeBaseStructInit(&TIM_TimeBaseStructure); 
    TIM_TimeBaseStructure.TIM_Period		= period;
    TIM_TimeBaseStructure.TIM_Prescaler		= TIM_PRESCALE_1_MICRO;
    TIM_TimeBaseStructure.TIM_ClockDivision	= 0;
  12:	2300      	movs	r3, #0
C:\cortex\dimmers\src/dimmers_tim.c:76
    TIM_TimeBaseStructure.TIM_CounterMode	= TIM_CounterMode_Up;
    TIM_TimeBaseInit(TIM3, &TIM_TimeBaseStructure);
  14:	a901      	add	r1, sp, #4
C:\cortex\dimmers\src/dimmers_tim.c:72
void TimSetConfigTimer3 ( u32 period ){

    TIM_TimeBaseInitTypeDef   	TIM_TimeBaseStructure;    

    TIM_TimeBaseStructInit(&TIM_TimeBaseStructure); 
    TIM_TimeBaseStructure.TIM_Period		= period;
  16:	f8ad 4008 	strh.w	r4, [sp, #8]
C:\cortex\dimmers\src/dimmers_tim.c:74
    TIM_TimeBaseStructure.TIM_Prescaler		= TIM_PRESCALE_1_MICRO;
    TIM_TimeBaseStructure.TIM_ClockDivision	= 0;
  1a:	f8ad 300a 	strh.w	r3, [sp, #10]
C:\cortex\dimmers\src/dimmers_tim.c:75
    TIM_TimeBaseStructure.TIM_CounterMode	= TIM_CounterMode_Up;
  1e:	f8ad 3006 	strh.w	r3, [sp, #6]
C:\cortex\dimmers\src/dimmers_tim.c:76
    TIM_TimeBaseInit(TIM3, &TIM_TimeBaseStructure);
  22:	f7ff fffe 	bl	0 <TIM_TimeBaseInit>
C:\cortex\dimmers\src/dimmers_tim.c:77
}
  26:	bd1f      	pop	{r0, r1, r2, r3, r4, pc}
  28:	40000400 	.word	0x40000400

Disassembly of section .text.TimSetConfigTimer4:

00000000 <TimSetConfigTimer4>:
TimSetConfigTimer4():
C:\cortex\dimmers\src/dimmers_tim.c:79

void TimSetConfigTimer4 ( u32 period ){
   0:	b51f      	push	{r0, r1, r2, r3, r4, lr}
   2:	4604      	mov	r4, r0
C:\cortex\dimmers\src/dimmers_tim.c:83

    TIM_TimeBaseInitTypeDef   	TIM_TimeBaseStructure;    

    TIM_TimeBaseStructInit(&TIM_TimeBaseStructure); 
   4:	a801      	add	r0, sp, #4
   6:	f7ff fffe 	bl	0 <TIM_TimeBaseStructInit>
C:\cortex\dimmers\src/dimmers_tim.c:85
    TIM_TimeBaseStructure.TIM_Period		= period;
    TIM_TimeBaseStructure.TIM_Prescaler		= TIM_PRESCALE_1_MICRO;
   a:	2348      	movs	r3, #72	; 0x48
   c:	f8ad 3004 	strh.w	r3, [sp, #4]
C:\cortex\dimmers\src/dimmers_tim.c:88
    TIM_TimeBaseStructure.TIM_ClockDivision	= 0;
    TIM_TimeBaseStructure.TIM_CounterMode	= TIM_CounterMode_Up;
    TIM_TimeBaseInit(TIM4, &TIM_TimeBaseStructure);
  10:	4805      	ldr	r0, [pc, #20]	; (28 <TimSetConfigTimer4+0x28>)
C:\cortex\dimmers\src/dimmers_tim.c:86
    TIM_TimeBaseInitTypeDef   	TIM_TimeBaseStructure;    

    TIM_TimeBaseStructInit(&TIM_TimeBaseStructure); 
    TIM_TimeBaseStructure.TIM_Period		= period;
    TIM_TimeBaseStructure.TIM_Prescaler		= TIM_PRESCALE_1_MICRO;
    TIM_TimeBaseStructure.TIM_ClockDivision	= 0;
  12:	2300      	movs	r3, #0
C:\cortex\dimmers\src/dimmers_tim.c:88
    TIM_TimeBaseStructure.TIM_CounterMode	= TIM_CounterMode_Up;
    TIM_TimeBaseInit(TIM4, &TIM_TimeBaseStructure);
  14:	a901      	add	r1, sp, #4
C:\cortex\dimmers\src/dimmers_tim.c:84
void TimSetConfigTimer4 ( u32 period ){

    TIM_TimeBaseInitTypeDef   	TIM_TimeBaseStructure;    

    TIM_TimeBaseStructInit(&TIM_TimeBaseStructure); 
    TIM_TimeBaseStructure.TIM_Period		= period;
  16:	f8ad 4008 	strh.w	r4, [sp, #8]
C:\cortex\dimmers\src/dimmers_tim.c:86
    TIM_TimeBaseStructure.TIM_Prescaler		= TIM_PRESCALE_1_MICRO;
    TIM_TimeBaseStructure.TIM_ClockDivision	= 0;
  1a:	f8ad 300a 	strh.w	r3, [sp, #10]
C:\cortex\dimmers\src/dimmers_tim.c:87
    TIM_TimeBaseStructure.TIM_CounterMode	= TIM_CounterMode_Up;
  1e:	f8ad 3006 	strh.w	r3, [sp, #6]
C:\cortex\dimmers\src/dimmers_tim.c:88
    TIM_TimeBaseInit(TIM4, &TIM_TimeBaseStructure);
  22:	f7ff fffe 	bl	0 <TIM_TimeBaseInit>
C:\cortex\dimmers\src/dimmers_tim.c:89
}
  26:	bd1f      	pop	{r0, r1, r2, r3, r4, pc}
  28:	40000800 	.word	0x40000800

Disassembly of section .text.TimSetConfigTimer5:

00000000 <TimSetConfigTimer5>:
TimSetConfigTimer5():
C:\cortex\dimmers\src/dimmers_tim.c:93

void TimSetConfigTimer5 ( u32 period ){
    //not used
}
   0:	4770      	bx	lr

Disassembly of section .text.TimSetConfigTimer6:

00000000 <TimSetConfigTimer6>:
TimSetConfigTimer6():
C:\cortex\dimmers\src/dimmers_tim.c:97

void TimSetConfigTimer6 ( u32 period ){
    //not used
}
   0:	4770      	bx	lr

Disassembly of section .text.TimSetConfigTimer7:

00000000 <TimSetConfigTimer7>:
TimSetConfigTimer7():
C:\cortex\dimmers\src/dimmers_tim.c:101

void TimSetConfigTimer7 ( u32 period ){
    //not used
}
   0:	4770      	bx	lr

Disassembly of section .text.TimSetConfigTimer8:

00000000 <TimSetConfigTimer8>:
TimSetConfigTimer8():
C:\cortex\dimmers\src/dimmers_tim.c:105

void TimSetConfigTimer8 ( u32 period ){
    //not used
}
   0:	4770      	bx	lr

Disassembly of section .text.TimDisablePreload:

00000000 <TimDisablePreload>:
TimDisablePreload():
C:\cortex\dimmers\src/dimmers_tim.c:107

void TimDisablePreload (void){
   0:	b510      	push	{r4, lr}
C:\cortex\dimmers\src/dimmers_tim.c:109

    TIM_OC1PreloadConfig(TIM2, TIM_OCPreload_Disable);
   2:	2100      	movs	r1, #0
   4:	f04f 4080 	mov.w	r0, #1073741824	; 0x40000000
   8:	f7ff fffe 	bl	0 <TIM_OC1PreloadConfig>
C:\cortex\dimmers\src/dimmers_tim.c:110
    TIM_OC2PreloadConfig(TIM2, TIM_OCPreload_Disable);
   c:	2100      	movs	r1, #0
   e:	f04f 4080 	mov.w	r0, #1073741824	; 0x40000000
  12:	f7ff fffe 	bl	0 <TIM_OC2PreloadConfig>
C:\cortex\dimmers\src/dimmers_tim.c:111
    TIM_OC3PreloadConfig(TIM2, TIM_OCPreload_Disable);
  16:	2100      	movs	r1, #0
  18:	f04f 4080 	mov.w	r0, #1073741824	; 0x40000000
  1c:	f7ff fffe 	bl	0 <TIM_OC3PreloadConfig>
C:\cortex\dimmers\src/dimmers_tim.c:112
    TIM_OC4PreloadConfig(TIM2, TIM_OCPreload_Disable);
  20:	2100      	movs	r1, #0
  22:	f04f 4080 	mov.w	r0, #1073741824	; 0x40000000
  26:	f7ff fffe 	bl	0 <TIM_OC4PreloadConfig>
C:\cortex\dimmers\src/dimmers_tim.c:113
    TIM_OC1PreloadConfig(TIM3, TIM_OCPreload_Disable);
  2a:	2100      	movs	r1, #0
  2c:	4810      	ldr	r0, [pc, #64]	; (70 <TimDisablePreload+0x70>)
  2e:	f7ff fffe 	bl	0 <TIM_OC1PreloadConfig>
C:\cortex\dimmers\src/dimmers_tim.c:114
    TIM_OC2PreloadConfig(TIM3, TIM_OCPreload_Disable);
  32:	2100      	movs	r1, #0
  34:	480e      	ldr	r0, [pc, #56]	; (70 <TimDisablePreload+0x70>)
  36:	f7ff fffe 	bl	0 <TIM_OC2PreloadConfig>
C:\cortex\dimmers\src/dimmers_tim.c:115
    TIM_OC3PreloadConfig(TIM3, TIM_OCPreload_Disable);
  3a:	2100      	movs	r1, #0
  3c:	480c      	ldr	r0, [pc, #48]	; (70 <TimDisablePreload+0x70>)
  3e:	f7ff fffe 	bl	0 <TIM_OC3PreloadConfig>
C:\cortex\dimmers\src/dimmers_tim.c:116
    TIM_OC4PreloadConfig(TIM3, TIM_OCPreload_Disable);
  42:	2100      	movs	r1, #0
  44:	480a      	ldr	r0, [pc, #40]	; (70 <TimDisablePreload+0x70>)
  46:	f7ff fffe 	bl	0 <TIM_OC4PreloadConfig>
C:\cortex\dimmers\src/dimmers_tim.c:117
    TIM_OC1PreloadConfig(TIM4, TIM_OCPreload_Disable);
  4a:	2100      	movs	r1, #0
  4c:	4809      	ldr	r0, [pc, #36]	; (74 <TimDisablePreload+0x74>)
  4e:	f7ff fffe 	bl	0 <TIM_OC1PreloadConfig>
C:\cortex\dimmers\src/dimmers_tim.c:118
    TIM_OC2PreloadConfig(TIM4, TIM_OCPreload_Disable);
  52:	2100      	movs	r1, #0
  54:	4807      	ldr	r0, [pc, #28]	; (74 <TimDisablePreload+0x74>)
  56:	f7ff fffe 	bl	0 <TIM_OC2PreloadConfig>
C:\cortex\dimmers\src/dimmers_tim.c:119
    TIM_OC3PreloadConfig(TIM4, TIM_OCPreload_Disable);
  5a:	2100      	movs	r1, #0
  5c:	4805      	ldr	r0, [pc, #20]	; (74 <TimDisablePreload+0x74>)
  5e:	f7ff fffe 	bl	0 <TIM_OC3PreloadConfig>
C:\cortex\dimmers\src/dimmers_tim.c:120
    TIM_OC4PreloadConfig(TIM4, TIM_OCPreload_Disable);
  62:	4804      	ldr	r0, [pc, #16]	; (74 <TimDisablePreload+0x74>)
  64:	2100      	movs	r1, #0
C:\cortex\dimmers\src/dimmers_tim.c:121
}
  66:	e8bd 4010 	ldmia.w	sp!, {r4, lr}
C:\cortex\dimmers\src/dimmers_tim.c:120
    TIM_OC3PreloadConfig(TIM3, TIM_OCPreload_Disable);
    TIM_OC4PreloadConfig(TIM3, TIM_OCPreload_Disable);
    TIM_OC1PreloadConfig(TIM4, TIM_OCPreload_Disable);
    TIM_OC2PreloadConfig(TIM4, TIM_OCPreload_Disable);
    TIM_OC3PreloadConfig(TIM4, TIM_OCPreload_Disable);
    TIM_OC4PreloadConfig(TIM4, TIM_OCPreload_Disable);
  6a:	f7ff bffe 	b.w	0 <TIM_OC4PreloadConfig>
  6e:	bf00      	nop
  70:	40000400 	.word	0x40000400
  74:	40000800 	.word	0x40000800

Disassembly of section .text.TimSetPreloadAllOn:

00000000 <TimSetPreloadAllOn>:
TimSetPreloadAllOn():
C:\cortex\dimmers\src/dimmers_tim.c:236
    TIM_OC4Init(TIM4, &TIM_OCInitStructure);
    TIM_OC4PreloadConfig(TIM4, TIM_OCPreload_Enable);

}

void TimSetPreloadAllOn (void){
   0:	2101b510 	.word	0x2101b510
C:\cortex\dimmers\src/dimmers_tim.c:238

    TIM_ARRPreloadConfig(TIM2, ENABLE);
   4:	f04f 4080 	mov.w	r0, #1073741824	; 0x40000000
   8:	f7ff fffe 	bl	0 <TIM_ARRPreloadConfig>
C:\cortex\dimmers\src/dimmers_tim.c:239
    TIM_ARRPreloadConfig(TIM3, ENABLE);
   c:	2101      	movs	r1, #1
   e:	4804      	ldr	r0, [pc, #16]	; (20 <TimSetPreloadAllOn+0x20>)
  10:	f7ff fffe 	bl	0 <TIM_ARRPreloadConfig>
C:\cortex\dimmers\src/dimmers_tim.c:240
    TIM_ARRPreloadConfig(TIM4, ENABLE);
  14:	4803      	ldr	r0, [pc, #12]	; (24 <TimSetPreloadAllOn+0x24>)
  16:	2101      	movs	r1, #1
C:\cortex\dimmers\src/dimmers_tim.c:241
}
  18:	e8bd 4010 	ldmia.w	sp!, {r4, lr}
C:\cortex\dimmers\src/dimmers_tim.c:240

void TimSetPreloadAllOn (void){

    TIM_ARRPreloadConfig(TIM2, ENABLE);
    TIM_ARRPreloadConfig(TIM3, ENABLE);
    TIM_ARRPreloadConfig(TIM4, ENABLE);
  1c:	f7ff bffe 	b.w	0 <TIM_ARRPreloadConfig>
  20:	40000400 	.word	0x40000400
  24:	40000800 	.word	0x40000800

Disassembly of section .text.TimSetInterruptAllEnabled:

00000000 <TimSetInterruptAllEnabled>:
TimSetInterruptAllEnabled():
C:\cortex\dimmers\src/dimmers_tim.c:245
}

void TimSetInterruptAllEnabled (void){

    TIM_ITConfig(TIM1, TIM_IT_Update , ENABLE);
   0:	2101      	movs	r1, #1
C:\cortex\dimmers\src/dimmers_tim.c:243
    TIM_ARRPreloadConfig(TIM2, ENABLE);
    TIM_ARRPreloadConfig(TIM3, ENABLE);
    TIM_ARRPreloadConfig(TIM4, ENABLE);
}

void TimSetInterruptAllEnabled (void){
   2:	b510      	push	{r4, lr}
C:\cortex\dimmers\src/dimmers_tim.c:245

    TIM_ITConfig(TIM1, TIM_IT_Update , ENABLE);
   4:	460a      	mov	r2, r1
   6:	480a      	ldr	r0, [pc, #40]	; (30 <TimSetInterruptAllEnabled+0x30>)
   8:	f7ff fffe 	bl	0 <TIM_ITConfig>
C:\cortex\dimmers\src/dimmers_tim.c:246
    TIM_ITConfig(TIM2, TIM_IT_CC1 | TIM_IT_CC2 | TIM_IT_CC3 | TIM_IT_CC4, ENABLE);
   c:	211e      	movs	r1, #30
   e:	2201      	movs	r2, #1
  10:	f04f 4080 	mov.w	r0, #1073741824	; 0x40000000
  14:	f7ff fffe 	bl	0 <TIM_ITConfig>
C:\cortex\dimmers\src/dimmers_tim.c:247
    TIM_ITConfig(TIM3, TIM_IT_CC1 | TIM_IT_CC2 | TIM_IT_CC3 | TIM_IT_CC4, ENABLE);
  18:	211e      	movs	r1, #30
  1a:	2201      	movs	r2, #1
  1c:	4805      	ldr	r0, [pc, #20]	; (34 <TimSetInterruptAllEnabled+0x34>)
  1e:	f7ff fffe 	bl	0 <TIM_ITConfig>
C:\cortex\dimmers\src/dimmers_tim.c:248
    TIM_ITConfig(TIM4, TIM_IT_CC1 | TIM_IT_CC2 | TIM_IT_CC3 | TIM_IT_CC4, ENABLE);
  22:	4805      	ldr	r0, [pc, #20]	; (38 <TimSetInterruptAllEnabled+0x38>)
  24:	211e      	movs	r1, #30
  26:	2201      	movs	r2, #1
C:\cortex\dimmers\src/dimmers_tim.c:249
}
  28:	e8bd 4010 	ldmia.w	sp!, {r4, lr}
C:\cortex\dimmers\src/dimmers_tim.c:248
void TimSetInterruptAllEnabled (void){

    TIM_ITConfig(TIM1, TIM_IT_Update , ENABLE);
    TIM_ITConfig(TIM2, TIM_IT_CC1 | TIM_IT_CC2 | TIM_IT_CC3 | TIM_IT_CC4, ENABLE);
    TIM_ITConfig(TIM3, TIM_IT_CC1 | TIM_IT_CC2 | TIM_IT_CC3 | TIM_IT_CC4, ENABLE);
    TIM_ITConfig(TIM4, TIM_IT_CC1 | TIM_IT_CC2 | TIM_IT_CC3 | TIM_IT_CC4, ENABLE);
  2c:	f7ff bffe 	b.w	0 <TIM_ITConfig>
  30:	40012c00 	.word	0x40012c00
  34:	40000400 	.word	0x40000400
  38:	40000800 	.word	0x40000800

Disassembly of section .text.TimDisableInterruptsCompare:

00000000 <TimDisableInterruptsCompare>:
TimDisableInterruptsCompare():
C:\cortex\dimmers\src/dimmers_tim.c:251
}

void TimDisableInterruptsCompare (void){
   0:	211eb510 	.word	0x211eb510
C:\cortex\dimmers\src/dimmers_tim.c:253

    TIM_ITConfig(TIM2, TIM_IT_CC1 | TIM_IT_CC2 | TIM_IT_CC3 | TIM_IT_CC4, DISABLE);
   4:	2200      	movs	r2, #0
   6:	f04f 4080 	mov.w	r0, #1073741824	; 0x40000000
   a:	f7ff fffe 	bl	0 <TIM_ITConfig>
C:\cortex\dimmers\src/dimmers_tim.c:254
    TIM_ITConfig(TIM3, TIM_IT_CC1 | TIM_IT_CC2 | TIM_IT_CC3 | TIM_IT_CC4, DISABLE);
   e:	211e      	movs	r1, #30
  10:	2200      	movs	r2, #0
  12:	4805      	ldr	r0, [pc, #20]	; (28 <TimDisableInterruptsCompare+0x28>)
  14:	f7ff fffe 	bl	0 <TIM_ITConfig>
C:\cortex\dimmers\src/dimmers_tim.c:255
    TIM_ITConfig(TIM4, TIM_IT_CC1 | TIM_IT_CC2 | TIM_IT_CC3 | TIM_IT_CC4, DISABLE);
  18:	4804      	ldr	r0, [pc, #16]	; (2c <TimDisableInterruptsCompare+0x2c>)
  1a:	211e      	movs	r1, #30
  1c:	2200      	movs	r2, #0
C:\cortex\dimmers\src/dimmers_tim.c:256
}
  1e:	e8bd 4010 	ldmia.w	sp!, {r4, lr}
C:\cortex\dimmers\src/dimmers_tim.c:255

void TimDisableInterruptsCompare (void){

    TIM_ITConfig(TIM2, TIM_IT_CC1 | TIM_IT_CC2 | TIM_IT_CC3 | TIM_IT_CC4, DISABLE);
    TIM_ITConfig(TIM3, TIM_IT_CC1 | TIM_IT_CC2 | TIM_IT_CC3 | TIM_IT_CC4, DISABLE);
    TIM_ITConfig(TIM4, TIM_IT_CC1 | TIM_IT_CC2 | TIM_IT_CC3 | TIM_IT_CC4, DISABLE);
  22:	f7ff bffe 	b.w	0 <TIM_ITConfig>
  26:	bf00      	nop
  28:	40000400 	.word	0x40000400
  2c:	40000800 	.word	0x40000800

Disassembly of section .text.TimStartAll:

00000000 <TimStartAll>:
TimStartAll():
C:\cortex\dimmers\src/dimmers_tim.c:282

void SetTimIntCompare6 ( FunctionalState NewState ){
    TIM_ITConfig( TIM4 , TIM_IT_CC3 | TIM_IT_CC4 , NewState );
}

void TimStartAll (void){
   0:	b510      	push	{r4, lr}
C:\cortex\dimmers\src/dimmers_tim.c:284

    TIM_Cmd(TIM1, ENABLE);
   2:	2101      	movs	r1, #1
   4:	4808      	ldr	r0, [pc, #32]	; (28 <TimStartAll+0x28>)
   6:	f7ff fffe 	bl	0 <TIM_Cmd>
C:\cortex\dimmers\src/dimmers_tim.c:285
    TIM_Cmd(TIM2, ENABLE);
   a:	2101      	movs	r1, #1
   c:	f04f 4080 	mov.w	r0, #1073741824	; 0x40000000
  10:	f7ff fffe 	bl	0 <TIM_Cmd>
C:\cortex\dimmers\src/dimmers_tim.c:286
    TIM_Cmd(TIM3, ENABLE);
  14:	2101      	movs	r1, #1
  16:	4805      	ldr	r0, [pc, #20]	; (2c <TimStartAll+0x2c>)
  18:	f7ff fffe 	bl	0 <TIM_Cmd>
C:\cortex\dimmers\src/dimmers_tim.c:287
    TIM_Cmd(TIM4, ENABLE);
  1c:	4804      	ldr	r0, [pc, #16]	; (30 <TimStartAll+0x30>)
  1e:	2101      	movs	r1, #1
C:\cortex\dimmers\src/dimmers_tim.c:288
}
  20:	e8bd 4010 	ldmia.w	sp!, {r4, lr}
C:\cortex\dimmers\src/dimmers_tim.c:287
void TimStartAll (void){

    TIM_Cmd(TIM1, ENABLE);
    TIM_Cmd(TIM2, ENABLE);
    TIM_Cmd(TIM3, ENABLE);
    TIM_Cmd(TIM4, ENABLE);
  24:	f7ff bffe 	b.w	0 <TIM_Cmd>
  28:	40012c00 	.word	0x40012c00
  2c:	40000400 	.word	0x40000400
  30:	40000800 	.word	0x40000800

Disassembly of section .text.TimGetHoldValue:

00000000 <TimGetHoldValue>:
TimGetHoldValue():
C:\cortex\dimmers\src/dimmers_tim.c:295
// ATTENTION operation takes 250µs !!!
u16 TimGetHoldValue ( u16 set ){

    double hold;

    hold = ((tanh ( ((( 10000 - set )/1000 )-3.0 ) /2.0 ) * 0.5) + 0.5) * 100;
   0:	f5c0 501c 	rsb	r0, r0, #9984	; 0x2700
C:\cortex\dimmers\src/dimmers_tim.c:291
    TIM_Cmd(TIM3, ENABLE);
    TIM_Cmd(TIM4, ENABLE);
}

// ATTENTION operation takes 250µs !!!
u16 TimGetHoldValue ( u16 set ){
   4:	b508      	push	{r3, lr}
C:\cortex\dimmers\src/dimmers_tim.c:295

    double hold;

    hold = ((tanh ( ((( 10000 - set )/1000 )-3.0 ) /2.0 ) * 0.5) + 0.5) * 100;
   6:	3010      	adds	r0, #16
   8:	f44f 737a 	mov.w	r3, #1000	; 0x3e8
   c:	fb90 f0f3 	sdiv	r0, r0, r3
  10:	f7ff fffe 	bl	0 <__aeabi_i2d>
  14:	2200      	movs	r2, #0
  16:	4b0c      	ldr	r3, [pc, #48]	; (48 <TimGetHoldValue+0x48>)
  18:	f7ff fffe 	bl	0 <__aeabi_dsub>
  1c:	2200      	movs	r2, #0
  1e:	4b0b      	ldr	r3, [pc, #44]	; (4c <TimGetHoldValue+0x4c>)
  20:	f7ff fffe 	bl	0 <__aeabi_dmul>
  24:	f7ff fffe 	bl	0 <tanh>
  28:	2200      	movs	r2, #0
  2a:	4b08      	ldr	r3, [pc, #32]	; (4c <TimGetHoldValue+0x4c>)
  2c:	f7ff fffe 	bl	0 <__aeabi_dmul>
  30:	2200      	movs	r2, #0
  32:	4b06      	ldr	r3, [pc, #24]	; (4c <TimGetHoldValue+0x4c>)
  34:	f7ff fffe 	bl	0 <__aeabi_dadd>
  38:	2200      	movs	r2, #0
  3a:	4b05      	ldr	r3, [pc, #20]	; (50 <TimGetHoldValue+0x50>)
  3c:	f7ff fffe 	bl	0 <__aeabi_dmul>
C:\cortex\dimmers\src/dimmers_tim.c:297

    return (u16) hold;
  40:	f7ff fffe 	bl	0 <__aeabi_d2uiz>
C:\cortex\dimmers\src/dimmers_tim.c:298
}
  44:	b280      	uxth	r0, r0
  46:	bd08      	pop	{r3, pc}
  48:	40080000 	.word	0x40080000
  4c:	3fe00000 	.word	0x3fe00000
  50:	40590000 	.word	0x40590000

Disassembly of section .text.TimSetCompareSetHold6:

00000000 <TimSetCompareSetHold6>:
TimSetCompareSetHold6():
C:\cortex\dimmers\src/dimmers_tim.c:361
    TIM_SetCompare2(TIM4 , set + hold );
    
}

// TIM4 OC3/4
void TimSetCompareSetHold6 ( u16 set ){
   0:	4604b570 	.word	0x4604b570
C:\cortex\dimmers\src/dimmers_tim.c:365

    u16 hold;

    hold = TimGetHoldValue(set);
   4:	f7ff fffe 	bl	0 <TimSetCompareSetHold6>
C:\cortex\dimmers\src/dimmers_tim.c:367

    TIM_SetCompare3(TIM4 , set);
   8:	4621      	mov	r1, r4
C:\cortex\dimmers\src/dimmers_tim.c:365
// TIM4 OC3/4
void TimSetCompareSetHold6 ( u16 set ){

    u16 hold;

    hold = TimGetHoldValue(set);
   a:	4605      	mov	r5, r0
C:\cortex\dimmers\src/dimmers_tim.c:367

    TIM_SetCompare3(TIM4 , set);
   c:	4804      	ldr	r0, [pc, #16]	; (20 <TimSetCompareSetHold6+0x20>)
   e:	f7ff fffe 	bl	0 <TIM_SetCompare3>
C:\cortex\dimmers\src/dimmers_tim.c:368
    TIM_SetCompare4(TIM4 , set + hold );
  12:	192c      	adds	r4, r5, r4
  14:	4802      	ldr	r0, [pc, #8]	; (20 <TimSetCompareSetHold6+0x20>)
  16:	b2a1      	uxth	r1, r4
C:\cortex\dimmers\src/dimmers_tim.c:370

}
  18:	e8bd 4070 	ldmia.w	sp!, {r4, r5, r6, lr}
C:\cortex\dimmers\src/dimmers_tim.c:368
    u16 hold;

    hold = TimGetHoldValue(set);

    TIM_SetCompare3(TIM4 , set);
    TIM_SetCompare4(TIM4 , set + hold );
  1c:	f7ff bffe 	b.w	0 <TIM_SetCompare4>
  20:	40000800 	.word	0x40000800

Disassembly of section .text.TimSetCompareSetHold5:

00000000 <TimSetCompareSetHold5>:
TimSetCompareSetHold5():
C:\cortex\dimmers\src/dimmers_tim.c:349
    TIM_SetCompare4(TIM3 , set + hold);

}

// TIM4 OC1/2
void TimSetCompareSetHold5 ( u16 set ){
   0:	b570      	push	{r4, r5, r6, lr}
   2:	4604      	mov	r4, r0
C:\cortex\dimmers\src/dimmers_tim.c:353

    u16 hold;

    hold = TimGetHoldValue(set);
   4:	f7ff fffe 	bl	0 <TimSetCompareSetHold5>
C:\cortex\dimmers\src/dimmers_tim.c:355

    TIM_SetCompare1(TIM4 , set);
   8:	4621      	mov	r1, r4
C:\cortex\dimmers\src/dimmers_tim.c:353
// TIM4 OC1/2
void TimSetCompareSetHold5 ( u16 set ){

    u16 hold;

    hold = TimGetHoldValue(set);
   a:	4605      	mov	r5, r0
C:\cortex\dimmers\src/dimmers_tim.c:355

    TIM_SetCompare1(TIM4 , set);
   c:	4804      	ldr	r0, [pc, #16]	; (20 <TimSetCompareSetHold5+0x20>)
   e:	f7ff fffe 	bl	0 <TIM_SetCompare1>
C:\cortex\dimmers\src/dimmers_tim.c:356
    TIM_SetCompare2(TIM4 , set + hold );
  12:	192c      	adds	r4, r5, r4
  14:	4802      	ldr	r0, [pc, #8]	; (20 <TimSetCompareSetHold5+0x20>)
  16:	b2a1      	uxth	r1, r4
C:\cortex\dimmers\src/dimmers_tim.c:358
    
}
  18:	e8bd 4070 	ldmia.w	sp!, {r4, r5, r6, lr}
C:\cortex\dimmers\src/dimmers_tim.c:356
    u16 hold;

    hold = TimGetHoldValue(set);

    TIM_SetCompare1(TIM4 , set);
    TIM_SetCompare2(TIM4 , set + hold );
  1c:	f7ff bffe 	b.w	0 <TIM_SetCompare2>
  20:	40000800 	.word	0x40000800

Disassembly of section .text.TimSetCompareSetHold4:

00000000 <TimSetCompareSetHold4>:
TimSetCompareSetHold4():
C:\cortex\dimmers\src/dimmers_tim.c:337
    TIM_SetCompare2(TIM3 , set + hold );
    
}

// TIM3 OC3/4
void TimSetCompareSetHold4 ( u16 set ){
   0:	b570      	push	{r4, r5, r6, lr}
   2:	4604      	mov	r4, r0
C:\cortex\dimmers\src/dimmers_tim.c:341

    u16 hold;

    hold = TimGetHoldValue(set);
   4:	f7ff fffe 	bl	0 <TimSetCompareSetHold4>
C:\cortex\dimmers\src/dimmers_tim.c:343

    TIM_SetCompare3(TIM3 , set);
   8:	4621      	mov	r1, r4
C:\cortex\dimmers\src/dimmers_tim.c:341
// TIM3 OC3/4
void TimSetCompareSetHold4 ( u16 set ){

    u16 hold;

    hold = TimGetHoldValue(set);
   a:	4605      	mov	r5, r0
C:\cortex\dimmers\src/dimmers_tim.c:343

    TIM_SetCompare3(TIM3 , set);
   c:	4804      	ldr	r0, [pc, #16]	; (20 <TimSetCompareSetHold4+0x20>)
   e:	f7ff fffe 	bl	0 <TIM_SetCompare3>
C:\cortex\dimmers\src/dimmers_tim.c:344
    TIM_SetCompare4(TIM3 , set + hold);
  12:	192c      	adds	r4, r5, r4
  14:	4802      	ldr	r0, [pc, #8]	; (20 <TimSetCompareSetHold4+0x20>)
  16:	b2a1      	uxth	r1, r4
C:\cortex\dimmers\src/dimmers_tim.c:346

}
  18:	e8bd 4070 	ldmia.w	sp!, {r4, r5, r6, lr}
C:\cortex\dimmers\src/dimmers_tim.c:344
    u16 hold;

    hold = TimGetHoldValue(set);

    TIM_SetCompare3(TIM3 , set);
    TIM_SetCompare4(TIM3 , set + hold);
  1c:	f7ff bffe 	b.w	0 <TIM_SetCompare4>
  20:	40000400 	.word	0x40000400

Disassembly of section .text.TimSetCompareSetHold3:

00000000 <TimSetCompareSetHold3>:
TimSetCompareSetHold3():
C:\cortex\dimmers\src/dimmers_tim.c:325
    TIM_SetCompare4(TIM2 , set + hold );

 }

// TIM3 OC1/2
void TimSetCompareSetHold3 ( u16 set ){
   0:	b570      	push	{r4, r5, r6, lr}
   2:	4604      	mov	r4, r0
C:\cortex\dimmers\src/dimmers_tim.c:329

    u16 hold;

    hold = TimGetHoldValue(set);
   4:	f7ff fffe 	bl	0 <TimSetCompareSetHold3>
C:\cortex\dimmers\src/dimmers_tim.c:331

    TIM_SetCompare1(TIM3 , set);
   8:	4621      	mov	r1, r4
C:\cortex\dimmers\src/dimmers_tim.c:329
// TIM3 OC1/2
void TimSetCompareSetHold3 ( u16 set ){

    u16 hold;

    hold = TimGetHoldValue(set);
   a:	4605      	mov	r5, r0
C:\cortex\dimmers\src/dimmers_tim.c:331

    TIM_SetCompare1(TIM3 , set);
   c:	4804      	ldr	r0, [pc, #16]	; (20 <TimSetCompareSetHold3+0x20>)
   e:	f7ff fffe 	bl	0 <TIM_SetCompare1>
C:\cortex\dimmers\src/dimmers_tim.c:332
    TIM_SetCompare2(TIM3 , set + hold );
  12:	192c      	adds	r4, r5, r4
  14:	4802      	ldr	r0, [pc, #8]	; (20 <TimSetCompareSetHold3+0x20>)
  16:	b2a1      	uxth	r1, r4
C:\cortex\dimmers\src/dimmers_tim.c:334
    
}
  18:	e8bd 4070 	ldmia.w	sp!, {r4, r5, r6, lr}
C:\cortex\dimmers\src/dimmers_tim.c:332
    u16 hold;

    hold = TimGetHoldValue(set);

    TIM_SetCompare1(TIM3 , set);
    TIM_SetCompare2(TIM3 , set + hold );
  1c:	f7ff bffe 	b.w	0 <TIM_SetCompare2>
  20:	40000400 	.word	0x40000400

Disassembly of section .text.TimSetCompareSetHold2:

00000000 <TimSetCompareSetHold2>:
TimSetCompareSetHold2():
C:\cortex\dimmers\src/dimmers_tim.c:313
    TIM_SetCompare2(TIM2 , set + hold );
    
}

// TIM2 OC3/4
void TimSetCompareSetHold2 ( u16 set ){
   0:	b570      	push	{r4, r5, r6, lr}
   2:	4604      	mov	r4, r0
C:\cortex\dimmers\src/dimmers_tim.c:317

    u16 hold;

    hold = TimGetHoldValue(set);
   4:	f7ff fffe 	bl	0 <TimSetCompareSetHold2>
C:\cortex\dimmers\src/dimmers_tim.c:319

    TIM_SetCompare3(TIM2 , set);
   8:	4621      	mov	r1, r4
C:\cortex\dimmers\src/dimmers_tim.c:317
// TIM2 OC3/4
void TimSetCompareSetHold2 ( u16 set ){

    u16 hold;

    hold = TimGetHoldValue(set);
   a:	4605      	mov	r5, r0
C:\cortex\dimmers\src/dimmers_tim.c:319

    TIM_SetCompare3(TIM2 , set);
   c:	f04f 4080 	mov.w	r0, #1073741824	; 0x40000000
  10:	f7ff fffe 	bl	0 <TIM_SetCompare3>
C:\cortex\dimmers\src/dimmers_tim.c:320
    TIM_SetCompare4(TIM2 , set + hold );
  14:	192c      	adds	r4, r5, r4
  16:	f04f 4080 	mov.w	r0, #1073741824	; 0x40000000
  1a:	b2a1      	uxth	r1, r4
C:\cortex\dimmers\src/dimmers_tim.c:322

 }
  1c:	e8bd 4070 	ldmia.w	sp!, {r4, r5, r6, lr}
C:\cortex\dimmers\src/dimmers_tim.c:320
    u16 hold;

    hold = TimGetHoldValue(set);

    TIM_SetCompare3(TIM2 , set);
    TIM_SetCompare4(TIM2 , set + hold );
  20:	f7ff bffe 	b.w	0 <TIM_SetCompare4>

Disassembly of section .text.TimSetCompareSetHold1:

00000000 <TimSetCompareSetHold1>:
TimSetCompareSetHold1():
C:\cortex\dimmers\src/dimmers_tim.c:301

    return (u16) hold;
}

// TIM2 OC1/2
void TimSetCompareSetHold1 ( u16 set ){
   0:	b570      	push	{r4, r5, r6, lr}
   2:	4604      	mov	r4, r0
C:\cortex\dimmers\src/dimmers_tim.c:305
    
    u16 hold;

    hold = TimGetHoldValue(set);
   4:	f7ff fffe 	bl	0 <TimSetCompareSetHold1>
C:\cortex\dimmers\src/dimmers_tim.c:307

    TIM_SetCompare1(TIM2 , set);
   8:	4621      	mov	r1, r4
C:\cortex\dimmers\src/dimmers_tim.c:305
// TIM2 OC1/2
void TimSetCompareSetHold1 ( u16 set ){
    
    u16 hold;

    hold = TimGetHoldValue(set);
   a:	4605      	mov	r5, r0
C:\cortex\dimmers\src/dimmers_tim.c:307

    TIM_SetCompare1(TIM2 , set);
   c:	f04f 4080 	mov.w	r0, #1073741824	; 0x40000000
  10:	f7ff fffe 	bl	0 <TIM_SetCompare1>
C:\cortex\dimmers\src/dimmers_tim.c:308
    TIM_SetCompare2(TIM2 , set + hold );
  14:	192c      	adds	r4, r5, r4
  16:	f04f 4080 	mov.w	r0, #1073741824	; 0x40000000
  1a:	b2a1      	uxth	r1, r4
C:\cortex\dimmers\src/dimmers_tim.c:310
    
}
  1c:	e8bd 4070 	ldmia.w	sp!, {r4, r5, r6, lr}
C:\cortex\dimmers\src/dimmers_tim.c:308
    u16 hold;

    hold = TimGetHoldValue(set);

    TIM_SetCompare1(TIM2 , set);
    TIM_SetCompare2(TIM2 , set + hold );
  20:	f7ff bffe 	b.w	0 <TIM_SetCompare2>

Disassembly of section .text.TimSetInitCompareSetHold6:

00000000 <TimSetInitCompareSetHold6>:
TimSetInitCompareSetHold6():
C:\cortex\dimmers\src/dimmers_tim.c:217
    TIM_OC2Init(TIM4, &TIM_OCInitStructure);
    TIM_OC2PreloadConfig(TIM4, TIM_OCPreload_Enable);

}

void TimSetInitCompareSetHold6 ( u16 set ){
   0:	b530      	push	{r4, r5, lr}
   2:	b085      	sub	sp, #20
C:\cortex\dimmers\src/dimmers_tim.c:222

    TIM_OCInitTypeDef			TIM_OCInitStructure;

    // set
    TIM_OCInitStructure.TIM_OCMode      = TIM_OCMode_Inactive;
   4:	2320      	movs	r3, #32
C:\cortex\dimmers\src/dimmers_tim.c:217
    TIM_OC2Init(TIM4, &TIM_OCInitStructure);
    TIM_OC2PreloadConfig(TIM4, TIM_OCPreload_Enable);

}

void TimSetInitCompareSetHold6 ( u16 set ){
   6:	4604      	mov	r4, r0
C:\cortex\dimmers\src/dimmers_tim.c:223

    TIM_OCInitTypeDef			TIM_OCInitStructure;

    // set
    TIM_OCInitStructure.TIM_OCMode      = TIM_OCMode_Inactive;
    TIM_OCInitStructure.TIM_OutputState = TIM_OutputState_Enable;
   8:	2501      	movs	r5, #1
C:\cortex\dimmers\src/dimmers_tim.c:224
    TIM_OCInitStructure.TIM_Pulse       = set;
   a:	f8ad 0006 	strh.w	r0, [sp, #6]
C:\cortex\dimmers\src/dimmers_tim.c:225
    TIM_OC3Init(TIM4, &TIM_OCInitStructure);
   e:	4669      	mov	r1, sp
  10:	480e      	ldr	r0, [pc, #56]	; (4c <TimSetInitCompareSetHold6+0x4c>)
C:\cortex\dimmers\src/dimmers_tim.c:222
void TimSetInitCompareSetHold6 ( u16 set ){

    TIM_OCInitTypeDef			TIM_OCInitStructure;

    // set
    TIM_OCInitStructure.TIM_OCMode      = TIM_OCMode_Inactive;
  12:	f8ad 3000 	strh.w	r3, [sp]
C:\cortex\dimmers\src/dimmers_tim.c:223
    TIM_OCInitStructure.TIM_OutputState = TIM_OutputState_Enable;
  16:	f8ad 5002 	strh.w	r5, [sp, #2]
C:\cortex\dimmers\src/dimmers_tim.c:225
    TIM_OCInitStructure.TIM_Pulse       = set;
    TIM_OC3Init(TIM4, &TIM_OCInitStructure);
  1a:	f7ff fffe 	bl	0 <TIM_OC3Init>
C:\cortex\dimmers\src/dimmers_tim.c:226
    TIM_OC3PreloadConfig(TIM4, TIM_OCPreload_Enable);
  1e:	2108      	movs	r1, #8
  20:	480a      	ldr	r0, [pc, #40]	; (4c <TimSetInitCompareSetHold6+0x4c>)
  22:	f7ff fffe 	bl	0 <TIM_OC3PreloadConfig>
C:\cortex\dimmers\src/dimmers_tim.c:230

    // hold
    TIM_OCInitStructure.TIM_OutputState = TIM_OutputState_Enable;
    TIM_OCInitStructure.TIM_Pulse       =  set + TimGetHoldValue(set);
  26:	4620      	mov	r0, r4
C:\cortex\dimmers\src/dimmers_tim.c:229
    TIM_OCInitStructure.TIM_Pulse       = set;
    TIM_OC3Init(TIM4, &TIM_OCInitStructure);
    TIM_OC3PreloadConfig(TIM4, TIM_OCPreload_Enable);

    // hold
    TIM_OCInitStructure.TIM_OutputState = TIM_OutputState_Enable;
  28:	f8ad 5002 	strh.w	r5, [sp, #2]
C:\cortex\dimmers\src/dimmers_tim.c:230
    TIM_OCInitStructure.TIM_Pulse       =  set + TimGetHoldValue(set);
  2c:	f7ff fffe 	bl	0 <TimSetInitCompareSetHold6>
  30:	1900      	adds	r0, r0, r4
  32:	f8ad 0006 	strh.w	r0, [sp, #6]
C:\cortex\dimmers\src/dimmers_tim.c:231
    TIM_OC4Init(TIM4, &TIM_OCInitStructure);
  36:	4669      	mov	r1, sp
  38:	4804      	ldr	r0, [pc, #16]	; (4c <TimSetInitCompareSetHold6+0x4c>)
  3a:	f7ff fffe 	bl	0 <TIM_OC4Init>
C:\cortex\dimmers\src/dimmers_tim.c:232
    TIM_OC4PreloadConfig(TIM4, TIM_OCPreload_Enable);
  3e:	4803      	ldr	r0, [pc, #12]	; (4c <TimSetInitCompareSetHold6+0x4c>)
  40:	2108      	movs	r1, #8
  42:	f7ff fffe 	bl	0 <TIM_OC4PreloadConfig>
C:\cortex\dimmers\src/dimmers_tim.c:234

}
  46:	b005      	add	sp, #20
  48:	bd30      	pop	{r4, r5, pc}
  4a:	bf00      	nop
  4c:	40000800 	.word	0x40000800

Disassembly of section .text.TimSetInitCompareSetHold5:

00000000 <TimSetInitCompareSetHold5>:
TimSetInitCompareSetHold5():
C:\cortex\dimmers\src/dimmers_tim.c:198
    TIM_OC4Init(TIM3, &TIM_OCInitStructure);
    TIM_OC4PreloadConfig(TIM3, TIM_OCPreload_Enable);

}

void TimSetInitCompareSetHold5 ( u16 set ){
   0:	b530      	push	{r4, r5, lr}
   2:	b085      	sub	sp, #20
C:\cortex\dimmers\src/dimmers_tim.c:203

    TIM_OCInitTypeDef			TIM_OCInitStructure;

    // set
    TIM_OCInitStructure.TIM_OCMode      = TIM_OCMode_Inactive;
   4:	2320      	movs	r3, #32
C:\cortex\dimmers\src/dimmers_tim.c:198
    TIM_OC4Init(TIM3, &TIM_OCInitStructure);
    TIM_OC4PreloadConfig(TIM3, TIM_OCPreload_Enable);

}

void TimSetInitCompareSetHold5 ( u16 set ){
   6:	4604      	mov	r4, r0
C:\cortex\dimmers\src/dimmers_tim.c:204

    TIM_OCInitTypeDef			TIM_OCInitStructure;

    // set
    TIM_OCInitStructure.TIM_OCMode      = TIM_OCMode_Inactive;
    TIM_OCInitStructure.TIM_OutputState = TIM_OutputState_Enable;
   8:	2501      	movs	r5, #1
C:\cortex\dimmers\src/dimmers_tim.c:205
    TIM_OCInitStructure.TIM_Pulse       = set;
   a:	f8ad 0006 	strh.w	r0, [sp, #6]
C:\cortex\dimmers\src/dimmers_tim.c:206
    TIM_OC1Init(TIM4, &TIM_OCInitStructure);
   e:	4669      	mov	r1, sp
  10:	480e      	ldr	r0, [pc, #56]	; (4c <TimSetInitCompareSetHold5+0x4c>)
C:\cortex\dimmers\src/dimmers_tim.c:203
void TimSetInitCompareSetHold5 ( u16 set ){

    TIM_OCInitTypeDef			TIM_OCInitStructure;

    // set
    TIM_OCInitStructure.TIM_OCMode      = TIM_OCMode_Inactive;
  12:	f8ad 3000 	strh.w	r3, [sp]
C:\cortex\dimmers\src/dimmers_tim.c:204
    TIM_OCInitStructure.TIM_OutputState = TIM_OutputState_Enable;
  16:	f8ad 5002 	strh.w	r5, [sp, #2]
C:\cortex\dimmers\src/dimmers_tim.c:206
    TIM_OCInitStructure.TIM_Pulse       = set;
    TIM_OC1Init(TIM4, &TIM_OCInitStructure);
  1a:	f7ff fffe 	bl	0 <TIM_OC1Init>
C:\cortex\dimmers\src/dimmers_tim.c:207
    TIM_OC1PreloadConfig(TIM4, TIM_OCPreload_Enable);
  1e:	2108      	movs	r1, #8
  20:	480a      	ldr	r0, [pc, #40]	; (4c <TimSetInitCompareSetHold5+0x4c>)
  22:	f7ff fffe 	bl	0 <TIM_OC1PreloadConfig>
C:\cortex\dimmers\src/dimmers_tim.c:211

    // hold
    TIM_OCInitStructure.TIM_OutputState = TIM_OutputState_Enable;
    TIM_OCInitStructure.TIM_Pulse       =  set + TimGetHoldValue(set);
  26:	4620      	mov	r0, r4
C:\cortex\dimmers\src/dimmers_tim.c:210
    TIM_OCInitStructure.TIM_Pulse       = set;
    TIM_OC1Init(TIM4, &TIM_OCInitStructure);
    TIM_OC1PreloadConfig(TIM4, TIM_OCPreload_Enable);

    // hold
    TIM_OCInitStructure.TIM_OutputState = TIM_OutputState_Enable;
  28:	f8ad 5002 	strh.w	r5, [sp, #2]
C:\cortex\dimmers\src/dimmers_tim.c:211
    TIM_OCInitStructure.TIM_Pulse       =  set + TimGetHoldValue(set);
  2c:	f7ff fffe 	bl	0 <TimSetInitCompareSetHold5>
  30:	1900      	adds	r0, r0, r4
  32:	f8ad 0006 	strh.w	r0, [sp, #6]
C:\cortex\dimmers\src/dimmers_tim.c:212
    TIM_OC2Init(TIM4, &TIM_OCInitStructure);
  36:	4669      	mov	r1, sp
  38:	4804      	ldr	r0, [pc, #16]	; (4c <TimSetInitCompareSetHold5+0x4c>)
  3a:	f7ff fffe 	bl	0 <TIM_OC2Init>
C:\cortex\dimmers\src/dimmers_tim.c:213
    TIM_OC2PreloadConfig(TIM4, TIM_OCPreload_Enable);
  3e:	4803      	ldr	r0, [pc, #12]	; (4c <TimSetInitCompareSetHold5+0x4c>)
  40:	2108      	movs	r1, #8
  42:	f7ff fffe 	bl	0 <TIM_OC2PreloadConfig>
C:\cortex\dimmers\src/dimmers_tim.c:215

}
  46:	b005      	add	sp, #20
  48:	bd30      	pop	{r4, r5, pc}
  4a:	bf00      	nop
  4c:	40000800 	.word	0x40000800

Disassembly of section .text.TimSetInitCompareSetHold4:

00000000 <TimSetInitCompareSetHold4>:
TimSetInitCompareSetHold4():
C:\cortex\dimmers\src/dimmers_tim.c:179
    TIM_OC2Init(TIM3, &TIM_OCInitStructure);
    TIM_OC2PreloadConfig(TIM3, TIM_OCPreload_Enable);

}

void TimSetInitCompareSetHold4 ( u16 set ){
   0:	b530      	push	{r4, r5, lr}
   2:	b085      	sub	sp, #20
C:\cortex\dimmers\src/dimmers_tim.c:184

    TIM_OCInitTypeDef			TIM_OCInitStructure;

    // set
    TIM_OCInitStructure.TIM_OCMode      = TIM_OCMode_Inactive;
   4:	2320      	movs	r3, #32
C:\cortex\dimmers\src/dimmers_tim.c:179
    TIM_OC2Init(TIM3, &TIM_OCInitStructure);
    TIM_OC2PreloadConfig(TIM3, TIM_OCPreload_Enable);

}

void TimSetInitCompareSetHold4 ( u16 set ){
   6:	4604      	mov	r4, r0
C:\cortex\dimmers\src/dimmers_tim.c:185

    TIM_OCInitTypeDef			TIM_OCInitStructure;

    // set
    TIM_OCInitStructure.TIM_OCMode      = TIM_OCMode_Inactive;
    TIM_OCInitStructure.TIM_OutputState = TIM_OutputState_Enable;
   8:	2501      	movs	r5, #1
C:\cortex\dimmers\src/dimmers_tim.c:186
    TIM_OCInitStructure.TIM_Pulse       = set;
   a:	f8ad 0006 	strh.w	r0, [sp, #6]
C:\cortex\dimmers\src/dimmers_tim.c:187
    TIM_OC3Init(TIM3, &TIM_OCInitStructure);
   e:	4669      	mov	r1, sp
  10:	480e      	ldr	r0, [pc, #56]	; (4c <TimSetInitCompareSetHold4+0x4c>)
C:\cortex\dimmers\src/dimmers_tim.c:184
void TimSetInitCompareSetHold4 ( u16 set ){

    TIM_OCInitTypeDef			TIM_OCInitStructure;

    // set
    TIM_OCInitStructure.TIM_OCMode      = TIM_OCMode_Inactive;
  12:	f8ad 3000 	strh.w	r3, [sp]
C:\cortex\dimmers\src/dimmers_tim.c:185
    TIM_OCInitStructure.TIM_OutputState = TIM_OutputState_Enable;
  16:	f8ad 5002 	strh.w	r5, [sp, #2]
C:\cortex\dimmers\src/dimmers_tim.c:187
    TIM_OCInitStructure.TIM_Pulse       = set;
    TIM_OC3Init(TIM3, &TIM_OCInitStructure);
  1a:	f7ff fffe 	bl	0 <TIM_OC3Init>
C:\cortex\dimmers\src/dimmers_tim.c:188
    TIM_OC3PreloadConfig(TIM3, TIM_OCPreload_Enable);
  1e:	2108      	movs	r1, #8
  20:	480a      	ldr	r0, [pc, #40]	; (4c <TimSetInitCompareSetHold4+0x4c>)
  22:	f7ff fffe 	bl	0 <TIM_OC3PreloadConfig>
C:\cortex\dimmers\src/dimmers_tim.c:192

    // hold
    TIM_OCInitStructure.TIM_OutputState = TIM_OutputState_Enable;
    TIM_OCInitStructure.TIM_Pulse       =  set + TimGetHoldValue(set);
  26:	4620      	mov	r0, r4
C:\cortex\dimmers\src/dimmers_tim.c:191
    TIM_OCInitStructure.TIM_Pulse       = set;
    TIM_OC3Init(TIM3, &TIM_OCInitStructure);
    TIM_OC3PreloadConfig(TIM3, TIM_OCPreload_Enable);

    // hold
    TIM_OCInitStructure.TIM_OutputState = TIM_OutputState_Enable;
  28:	f8ad 5002 	strh.w	r5, [sp, #2]
C:\cortex\dimmers\src/dimmers_tim.c:192
    TIM_OCInitStructure.TIM_Pulse       =  set + TimGetHoldValue(set);
  2c:	f7ff fffe 	bl	0 <TimSetInitCompareSetHold4>
  30:	1900      	adds	r0, r0, r4
  32:	f8ad 0006 	strh.w	r0, [sp, #6]
C:\cortex\dimmers\src/dimmers_tim.c:193
    TIM_OC4Init(TIM3, &TIM_OCInitStructure);
  36:	4669      	mov	r1, sp
  38:	4804      	ldr	r0, [pc, #16]	; (4c <TimSetInitCompareSetHold4+0x4c>)
  3a:	f7ff fffe 	bl	0 <TIM_OC4Init>
C:\cortex\dimmers\src/dimmers_tim.c:194
    TIM_OC4PreloadConfig(TIM3, TIM_OCPreload_Enable);
  3e:	4803      	ldr	r0, [pc, #12]	; (4c <TimSetInitCompareSetHold4+0x4c>)
  40:	2108      	movs	r1, #8
  42:	f7ff fffe 	bl	0 <TIM_OC4PreloadConfig>
C:\cortex\dimmers\src/dimmers_tim.c:196

}
  46:	b005      	add	sp, #20
  48:	bd30      	pop	{r4, r5, pc}
  4a:	bf00      	nop
  4c:	40000400 	.word	0x40000400

Disassembly of section .text.TimSetInitCompareSetHold3:

00000000 <TimSetInitCompareSetHold3>:
TimSetInitCompareSetHold3():
C:\cortex\dimmers\src/dimmers_tim.c:160
    TIM_OCInitStructure.TIM_Pulse       =  set + TimGetHoldValue(set);
    TIM_OC4Init(TIM2, &TIM_OCInitStructure);
    TIM_OC4PreloadConfig(TIM2, TIM_OCPreload_Enable);
}

void TimSetInitCompareSetHold3 ( u16 set ){
   0:	b530      	push	{r4, r5, lr}
   2:	b085      	sub	sp, #20
C:\cortex\dimmers\src/dimmers_tim.c:165

    TIM_OCInitTypeDef			TIM_OCInitStructure;

    // set
    TIM_OCInitStructure.TIM_OCMode      = TIM_OCMode_Inactive;
   4:	2320      	movs	r3, #32
C:\cortex\dimmers\src/dimmers_tim.c:160
    TIM_OCInitStructure.TIM_Pulse       =  set + TimGetHoldValue(set);
    TIM_OC4Init(TIM2, &TIM_OCInitStructure);
    TIM_OC4PreloadConfig(TIM2, TIM_OCPreload_Enable);
}

void TimSetInitCompareSetHold3 ( u16 set ){
   6:	4604      	mov	r4, r0
C:\cortex\dimmers\src/dimmers_tim.c:166

    TIM_OCInitTypeDef			TIM_OCInitStructure;

    // set
    TIM_OCInitStructure.TIM_OCMode      = TIM_OCMode_Inactive;
    TIM_OCInitStructure.TIM_OutputState = TIM_OutputState_Enable;
   8:	2501      	movs	r5, #1
C:\cortex\dimmers\src/dimmers_tim.c:167
    TIM_OCInitStructure.TIM_Pulse       = set;
   a:	f8ad 0006 	strh.w	r0, [sp, #6]
C:\cortex\dimmers\src/dimmers_tim.c:168
    TIM_OC1Init(TIM3, &TIM_OCInitStructure);
   e:	4669      	mov	r1, sp
  10:	480e      	ldr	r0, [pc, #56]	; (4c <TimSetInitCompareSetHold3+0x4c>)
C:\cortex\dimmers\src/dimmers_tim.c:165
void TimSetInitCompareSetHold3 ( u16 set ){

    TIM_OCInitTypeDef			TIM_OCInitStructure;

    // set
    TIM_OCInitStructure.TIM_OCMode      = TIM_OCMode_Inactive;
  12:	f8ad 3000 	strh.w	r3, [sp]
C:\cortex\dimmers\src/dimmers_tim.c:166
    TIM_OCInitStructure.TIM_OutputState = TIM_OutputState_Enable;
  16:	f8ad 5002 	strh.w	r5, [sp, #2]
C:\cortex\dimmers\src/dimmers_tim.c:168
    TIM_OCInitStructure.TIM_Pulse       = set;
    TIM_OC1Init(TIM3, &TIM_OCInitStructure);
  1a:	f7ff fffe 	bl	0 <TIM_OC1Init>
C:\cortex\dimmers\src/dimmers_tim.c:169
    TIM_OC1PreloadConfig(TIM3, TIM_OCPreload_Enable);
  1e:	2108      	movs	r1, #8
  20:	480a      	ldr	r0, [pc, #40]	; (4c <TimSetInitCompareSetHold3+0x4c>)
  22:	f7ff fffe 	bl	0 <TIM_OC1PreloadConfig>
C:\cortex\dimmers\src/dimmers_tim.c:173

    // hold
    TIM_OCInitStructure.TIM_OutputState = TIM_OutputState_Enable;
    TIM_OCInitStructure.TIM_Pulse       =  set + TimGetHoldValue(set);
  26:	4620      	mov	r0, r4
C:\cortex\dimmers\src/dimmers_tim.c:172
    TIM_OCInitStructure.TIM_Pulse       = set;
    TIM_OC1Init(TIM3, &TIM_OCInitStructure);
    TIM_OC1PreloadConfig(TIM3, TIM_OCPreload_Enable);

    // hold
    TIM_OCInitStructure.TIM_OutputState = TIM_OutputState_Enable;
  28:	f8ad 5002 	strh.w	r5, [sp, #2]
C:\cortex\dimmers\src/dimmers_tim.c:173
    TIM_OCInitStructure.TIM_Pulse       =  set + TimGetHoldValue(set);
  2c:	f7ff fffe 	bl	0 <TimSetInitCompareSetHold3>
  30:	1900      	adds	r0, r0, r4
  32:	f8ad 0006 	strh.w	r0, [sp, #6]
C:\cortex\dimmers\src/dimmers_tim.c:174
    TIM_OC2Init(TIM3, &TIM_OCInitStructure);
  36:	4669      	mov	r1, sp
  38:	4804      	ldr	r0, [pc, #16]	; (4c <TimSetInitCompareSetHold3+0x4c>)
  3a:	f7ff fffe 	bl	0 <TIM_OC2Init>
C:\cortex\dimmers\src/dimmers_tim.c:175
    TIM_OC2PreloadConfig(TIM3, TIM_OCPreload_Enable);
  3e:	4803      	ldr	r0, [pc, #12]	; (4c <TimSetInitCompareSetHold3+0x4c>)
  40:	2108      	movs	r1, #8
  42:	f7ff fffe 	bl	0 <TIM_OC2PreloadConfig>
C:\cortex\dimmers\src/dimmers_tim.c:177

}
  46:	b005      	add	sp, #20
  48:	bd30      	pop	{r4, r5, pc}
  4a:	bf00      	nop
  4c:	40000400 	.word	0x40000400

Disassembly of section .text.TimSetInitCompareSetHold2:

00000000 <TimSetInitCompareSetHold2>:
TimSetInitCompareSetHold2():
C:\cortex\dimmers\src/dimmers_tim.c:142
    TIM_OC2Init(TIM2, &TIM_OCInitStructure);
    TIM_OC2PreloadConfig(TIM2, TIM_OCPreload_Enable);

}

void TimSetInitCompareSetHold2 ( u16 set ){
   0:	b530      	push	{r4, r5, lr}
   2:	b085      	sub	sp, #20
C:\cortex\dimmers\src/dimmers_tim.c:147

    TIM_OCInitTypeDef			TIM_OCInitStructure;

    // set
    TIM_OCInitStructure.TIM_OCMode      = TIM_OCMode_Inactive;
   4:	2320      	movs	r3, #32
C:\cortex\dimmers\src/dimmers_tim.c:142
    TIM_OC2Init(TIM2, &TIM_OCInitStructure);
    TIM_OC2PreloadConfig(TIM2, TIM_OCPreload_Enable);

}

void TimSetInitCompareSetHold2 ( u16 set ){
   6:	4604      	mov	r4, r0
C:\cortex\dimmers\src/dimmers_tim.c:148

    TIM_OCInitTypeDef			TIM_OCInitStructure;

    // set
    TIM_OCInitStructure.TIM_OCMode      = TIM_OCMode_Inactive;
    TIM_OCInitStructure.TIM_OutputState = TIM_OutputState_Enable;
   8:	2501      	movs	r5, #1
C:\cortex\dimmers\src/dimmers_tim.c:149
    TIM_OCInitStructure.TIM_Pulse       = set;
   a:	f8ad 0006 	strh.w	r0, [sp, #6]
C:\cortex\dimmers\src/dimmers_tim.c:150
    TIM_OC3Init(TIM2, &TIM_OCInitStructure);
   e:	4669      	mov	r1, sp
  10:	f04f 4080 	mov.w	r0, #1073741824	; 0x40000000
C:\cortex\dimmers\src/dimmers_tim.c:147
void TimSetInitCompareSetHold2 ( u16 set ){

    TIM_OCInitTypeDef			TIM_OCInitStructure;

    // set
    TIM_OCInitStructure.TIM_OCMode      = TIM_OCMode_Inactive;
  14:	f8ad 3000 	strh.w	r3, [sp]
C:\cortex\dimmers\src/dimmers_tim.c:148
    TIM_OCInitStructure.TIM_OutputState = TIM_OutputState_Enable;
  18:	f8ad 5002 	strh.w	r5, [sp, #2]
C:\cortex\dimmers\src/dimmers_tim.c:150
    TIM_OCInitStructure.TIM_Pulse       = set;
    TIM_OC3Init(TIM2, &TIM_OCInitStructure);
  1c:	f7ff fffe 	bl	0 <TIM_OC3Init>
C:\cortex\dimmers\src/dimmers_tim.c:151
    TIM_OC3PreloadConfig(TIM2, TIM_OCPreload_Enable);
  20:	2108      	movs	r1, #8
  22:	f04f 4080 	mov.w	r0, #1073741824	; 0x40000000
  26:	f7ff fffe 	bl	0 <TIM_OC3PreloadConfig>
C:\cortex\dimmers\src/dimmers_tim.c:155

    // hold
    TIM_OCInitStructure.TIM_OutputState = TIM_OutputState_Enable;
    TIM_OCInitStructure.TIM_Pulse       =  set + TimGetHoldValue(set);
  2a:	4620      	mov	r0, r4
C:\cortex\dimmers\src/dimmers_tim.c:154
    TIM_OCInitStructure.TIM_Pulse       = set;
    TIM_OC3Init(TIM2, &TIM_OCInitStructure);
    TIM_OC3PreloadConfig(TIM2, TIM_OCPreload_Enable);

    // hold
    TIM_OCInitStructure.TIM_OutputState = TIM_OutputState_Enable;
  2c:	f8ad 5002 	strh.w	r5, [sp, #2]
C:\cortex\dimmers\src/dimmers_tim.c:155
    TIM_OCInitStructure.TIM_Pulse       =  set + TimGetHoldValue(set);
  30:	f7ff fffe 	bl	0 <TimSetInitCompareSetHold2>
  34:	1900      	adds	r0, r0, r4
  36:	f8ad 0006 	strh.w	r0, [sp, #6]
C:\cortex\dimmers\src/dimmers_tim.c:156
    TIM_OC4Init(TIM2, &TIM_OCInitStructure);
  3a:	4669      	mov	r1, sp
  3c:	f04f 4080 	mov.w	r0, #1073741824	; 0x40000000
  40:	f7ff fffe 	bl	0 <TIM_OC4Init>
C:\cortex\dimmers\src/dimmers_tim.c:157
    TIM_OC4PreloadConfig(TIM2, TIM_OCPreload_Enable);
  44:	f04f 4080 	mov.w	r0, #1073741824	; 0x40000000
  48:	2108      	movs	r1, #8
  4a:	f7ff fffe 	bl	0 <TIM_OC4PreloadConfig>
C:\cortex\dimmers\src/dimmers_tim.c:158
}
  4e:	b005      	add	sp, #20
  50:	bd30      	pop	{r4, r5, pc}

Disassembly of section .text.TimSetInitCompareSetHold1:

00000000 <TimSetInitCompareSetHold1>:
TimSetInitCompareSetHold1():
C:\cortex\dimmers\src/dimmers_tim.c:123
    TIM_OC2PreloadConfig(TIM4, TIM_OCPreload_Disable);
    TIM_OC3PreloadConfig(TIM4, TIM_OCPreload_Disable);
    TIM_OC4PreloadConfig(TIM4, TIM_OCPreload_Disable);
}

void TimSetInitCompareSetHold1 ( u16 set ){
   0:	b530      	push	{r4, r5, lr}
   2:	b085      	sub	sp, #20
C:\cortex\dimmers\src/dimmers_tim.c:128

    TIM_OCInitTypeDef			TIM_OCInitStructure;

    // set
    TIM_OCInitStructure.TIM_OCMode      = TIM_OCMode_Inactive;
   4:	2320      	movs	r3, #32
C:\cortex\dimmers\src/dimmers_tim.c:123
    TIM_OC2PreloadConfig(TIM4, TIM_OCPreload_Disable);
    TIM_OC3PreloadConfig(TIM4, TIM_OCPreload_Disable);
    TIM_OC4PreloadConfig(TIM4, TIM_OCPreload_Disable);
}

void TimSetInitCompareSetHold1 ( u16 set ){
   6:	4604      	mov	r4, r0
C:\cortex\dimmers\src/dimmers_tim.c:129

    TIM_OCInitTypeDef			TIM_OCInitStructure;

    // set
    TIM_OCInitStructure.TIM_OCMode      = TIM_OCMode_Inactive;
    TIM_OCInitStructure.TIM_OutputState = TIM_OutputState_Enable;
   8:	2501      	movs	r5, #1
C:\cortex\dimmers\src/dimmers_tim.c:130
    TIM_OCInitStructure.TIM_Pulse       = set;
   a:	f8ad 0006 	strh.w	r0, [sp, #6]
C:\cortex\dimmers\src/dimmers_tim.c:131
    TIM_OC1Init(TIM2, &TIM_OCInitStructure);
   e:	4669      	mov	r1, sp
  10:	f04f 4080 	mov.w	r0, #1073741824	; 0x40000000
C:\cortex\dimmers\src/dimmers_tim.c:128
void TimSetInitCompareSetHold1 ( u16 set ){

    TIM_OCInitTypeDef			TIM_OCInitStructure;

    // set
    TIM_OCInitStructure.TIM_OCMode      = TIM_OCMode_Inactive;
  14:	f8ad 3000 	strh.w	r3, [sp]
C:\cortex\dimmers\src/dimmers_tim.c:129
    TIM_OCInitStructure.TIM_OutputState = TIM_OutputState_Enable;
  18:	f8ad 5002 	strh.w	r5, [sp, #2]
C:\cortex\dimmers\src/dimmers_tim.c:131
    TIM_OCInitStructure.TIM_Pulse       = set;
    TIM_OC1Init(TIM2, &TIM_OCInitStructure);
  1c:	f7ff fffe 	bl	0 <TIM_OC1Init>
C:\cortex\dimmers\src/dimmers_tim.c:132
    TIM_OC1PreloadConfig(TIM2, TIM_OCPreload_Enable);
  20:	2108      	movs	r1, #8
  22:	f04f 4080 	mov.w	r0, #1073741824	; 0x40000000
  26:	f7ff fffe 	bl	0 <TIM_OC1PreloadConfig>
C:\cortex\dimmers\src/dimmers_tim.c:136

    // hold
    TIM_OCInitStructure.TIM_OutputState = TIM_OutputState_Enable;
    TIM_OCInitStructure.TIM_Pulse       = set + TimGetHoldValue(set);
  2a:	4620      	mov	r0, r4
C:\cortex\dimmers\src/dimmers_tim.c:135
    TIM_OCInitStructure.TIM_Pulse       = set;
    TIM_OC1Init(TIM2, &TIM_OCInitStructure);
    TIM_OC1PreloadConfig(TIM2, TIM_OCPreload_Enable);

    // hold
    TIM_OCInitStructure.TIM_OutputState = TIM_OutputState_Enable;
  2c:	f8ad 5002 	strh.w	r5, [sp, #2]
C:\cortex\dimmers\src/dimmers_tim.c:136
    TIM_OCInitStructure.TIM_Pulse       = set + TimGetHoldValue(set);
  30:	f7ff fffe 	bl	0 <TimSetInitCompareSetHold1>
  34:	1900      	adds	r0, r0, r4
  36:	f8ad 0006 	strh.w	r0, [sp, #6]
C:\cortex\dimmers\src/dimmers_tim.c:137
    TIM_OC2Init(TIM2, &TIM_OCInitStructure);
  3a:	4669      	mov	r1, sp
  3c:	f04f 4080 	mov.w	r0, #1073741824	; 0x40000000
  40:	f7ff fffe 	bl	0 <TIM_OC2Init>
C:\cortex\dimmers\src/dimmers_tim.c:138
    TIM_OC2PreloadConfig(TIM2, TIM_OCPreload_Enable);
  44:	f04f 4080 	mov.w	r0, #1073741824	; 0x40000000
  48:	2108      	movs	r1, #8
  4a:	f7ff fffe 	bl	0 <TIM_OC2PreloadConfig>
C:\cortex\dimmers\src/dimmers_tim.c:140

}
  4e:	b005      	add	sp, #20
  50:	bd30      	pop	{r4, r5, pc}

Disassembly of section .text.ComparesToArrayOfFunctions:

00000000 <ComparesToArrayOfFunctions>:
ComparesToArrayOfFunctions():
C:\cortex\dimmers\src/dimmers_tim.c:374

}

void ComparesToArrayOfFunctions ( void ){

    Compares[LIGHT1_INDEX] = &TimSetCompareSetHold1;
   0:	4b06      	ldr	r3, [pc, #24]	; (1c <ComparesToArrayOfFunctions+0x1c>)
   2:	4a07      	ldr	r2, [pc, #28]	; (20 <ComparesToArrayOfFunctions+0x20>)
   4:	601a      	str	r2, [r3, #0]
C:\cortex\dimmers\src/dimmers_tim.c:375
    Compares[LIGHT2_INDEX] = &TimSetCompareSetHold2;
   6:	4a07      	ldr	r2, [pc, #28]	; (24 <ComparesToArrayOfFunctions+0x24>)
   8:	605a      	str	r2, [r3, #4]
C:\cortex\dimmers\src/dimmers_tim.c:376
    Compares[LIGHT3_INDEX] = &TimSetCompareSetHold3;
   a:	4a07      	ldr	r2, [pc, #28]	; (28 <ComparesToArrayOfFunctions+0x28>)
   c:	609a      	str	r2, [r3, #8]
C:\cortex\dimmers\src/dimmers_tim.c:377
    Compares[LIGHT4_INDEX] = &TimSetCompareSetHold4;
   e:	4a07      	ldr	r2, [pc, #28]	; (2c <ComparesToArrayOfFunctions+0x2c>)
  10:	60da      	str	r2, [r3, #12]
C:\cortex\dimmers\src/dimmers_tim.c:378
    Compares[LIGHT5_INDEX] = &TimSetCompareSetHold5;
  12:	4a07      	ldr	r2, [pc, #28]	; (30 <ComparesToArrayOfFunctions+0x30>)
  14:	611a      	str	r2, [r3, #16]
C:\cortex\dimmers\src/dimmers_tim.c:379
    Compares[LIGHT6_INDEX] = &TimSetCompareSetHold6;
  16:	4a07      	ldr	r2, [pc, #28]	; (34 <ComparesToArrayOfFunctions+0x34>)
  18:	615a      	str	r2, [r3, #20]
C:\cortex\dimmers\src/dimmers_tim.c:380
}
  1a:	4770      	bx	lr
	...

Disassembly of section .text.CompareStatesToArrayOfFunctions:

00000000 <CompareStatesToArrayOfFunctions>:
CompareStatesToArrayOfFunctions():
C:\cortex\dimmers\src/dimmers_tim.c:384

void CompareStatesToArrayOfFunctions ( void ){

    CompareStates[LIGHT1_INDEX] = &SetTimIntCompare1;
   0:	4b06      	ldr	r3, [pc, #24]	; (1c <CompareStatesToArrayOfFunctions+0x1c>)
   2:	4a07      	ldr	r2, [pc, #28]	; (20 <CompareStatesToArrayOfFunctions+0x20>)
   4:	601a      	str	r2, [r3, #0]
C:\cortex\dimmers\src/dimmers_tim.c:385
    CompareStates[LIGHT2_INDEX] = &SetTimIntCompare2;
   6:	4a07      	ldr	r2, [pc, #28]	; (24 <CompareStatesToArrayOfFunctions+0x24>)
   8:	605a      	str	r2, [r3, #4]
C:\cortex\dimmers\src/dimmers_tim.c:386
    CompareStates[LIGHT3_INDEX] = &SetTimIntCompare3;
   a:	4a07      	ldr	r2, [pc, #28]	; (28 <CompareStatesToArrayOfFunctions+0x28>)
   c:	609a      	str	r2, [r3, #8]
C:\cortex\dimmers\src/dimmers_tim.c:387
    CompareStates[LIGHT4_INDEX] = &SetTimIntCompare4;
   e:	4a07      	ldr	r2, [pc, #28]	; (2c <CompareStatesToArrayOfFunctions+0x2c>)
  10:	60da      	str	r2, [r3, #12]
C:\cortex\dimmers\src/dimmers_tim.c:388
    CompareStates[LIGHT5_INDEX] = &SetTimIntCompare5;
  12:	4a07      	ldr	r2, [pc, #28]	; (30 <CompareStatesToArrayOfFunctions+0x30>)
  14:	611a      	str	r2, [r3, #16]
C:\cortex\dimmers\src/dimmers_tim.c:389
    CompareStates[LIGHT6_INDEX] = &SetTimIntCompare6;
  16:	4a07      	ldr	r2, [pc, #28]	; (34 <CompareStatesToArrayOfFunctions+0x34>)
  18:	615a      	str	r2, [r3, #20]
C:\cortex\dimmers\src/dimmers_tim.c:390
}
  1a:	4770      	bx	lr
	...

Disassembly of section .text.TimResetAll:

00000000 <TimResetAll>:
TimResetAll():
C:\cortex\dimmers\src/dimmers_tim.c:392

void TimResetAll (void){
   0:	b510      	push	{r4, lr}
C:\cortex\dimmers\src/dimmers_tim.c:394

    TIM_SetCounter(TIM2, 0);
   2:	2100      	movs	r1, #0
   4:	f04f 4080 	mov.w	r0, #1073741824	; 0x40000000
   8:	f7ff fffe 	bl	0 <TIM_SetCounter>
C:\cortex\dimmers\src/dimmers_tim.c:395
    TIM_SetCounter(TIM3, 0);
   c:	2100      	movs	r1, #0
   e:	4804      	ldr	r0, [pc, #16]	; (20 <TimResetAll+0x20>)
  10:	f7ff fffe 	bl	0 <TIM_SetCounter>
C:\cortex\dimmers\src/dimmers_tim.c:396
    TIM_SetCounter(TIM4, 0);
  14:	4803      	ldr	r0, [pc, #12]	; (24 <TimResetAll+0x24>)
  16:	2100      	movs	r1, #0
C:\cortex\dimmers\src/dimmers_tim.c:397
}
  18:	e8bd 4010 	ldmia.w	sp!, {r4, lr}
C:\cortex\dimmers\src/dimmers_tim.c:396

void TimResetAll (void){

    TIM_SetCounter(TIM2, 0);
    TIM_SetCounter(TIM3, 0);
    TIM_SetCounter(TIM4, 0);
  1c:	f7ff bffe 	b.w	0 <TIM_SetCounter>
  20:	40000400 	.word	0x40000400
  24:	40000800 	.word	0x40000800
